Certificate:
    Data:
        Version: 1 (0x0)
        Serial Number:
            16:6a:43:4a:86:d0:0e:f6:17:d7:a3:96:15:ea:f9:e1:04:5d:ad:7f
        Signature Algorithm: ecdsa-with-SHA256
        Issuer: C=ES, ST=MA, L=Tres Cantos, O=eProsima, CN=eProsima Main Test CA/emailAddress=routertest@eprosima.com
        Validity
            Not Before: Dec 27 09:01:13 2023 GMT
            Not After : Dec 24 09:01:13 2033 GMT
        Subject: C=ES, ST=MA, O=eProsima, CN=BackdoorTestLocalPub/emailAddress=routertest@eprosima.com
        Subject Public Key Info:
            Public Key Algorithm: id-ecPublicKey
                Public-Key: (256 bit)
                pub:
                    04:f1:7e:30:5f:e5:92:f1:22:2d:40:8c:36:4e:5d:
                    32:11:84:73:ae:ad:99:02:f5:4b:5a:d4:6e:2f:98:
                    0a:b3:95:21:48:05:98:45:c3:ed:5f:55:07:62:4f:
                    f3:3a:cb:ee:83:59:75:d3:29:d1:ce:91:ac:46:b3:
                    a4:da:2c:01:91
                ASN1 OID: prime256v1
                NIST CURVE: P-256
    Signature Algorithm: ecdsa-with-SHA256
    Signature Value:
        30:44:02:20:76:7b:aa:e4:a1:fc:ea:d3:d1:07:70:99:1e:c2:
        bb:94:51:8e:80:bb:ab:7c:49:ca:81:e5:34:a7:54:9b:9b:52:
        02:20:0b:40:b6:60:24:02:da:51:17:b8:c3:1c:74:cc:48:3e:
        e6:20:d9:9e:8f:79:77:f2:25:69:a8:b0:fa:18:c2:19
-----BEGIN CERTIFICATE-----
MIIB+jCCAaECFBZqQ0qG0A72F9ejlhXq+eEEXa1/MAoGCCqGSM49BAMCMIGLMQsw
CQYDVQQGEwJFUzELMAkGA1UECAwCTUExFDASBgNVBAcMC1RyZXMgQ2FudG9zMREw
DwYDVQQKDAhlUHJvc2ltYTEeMBwGA1UEAwwVZVByb3NpbWEgTWFpbiBUZXN0IENB
MSYwJAYJKoZIhvcNAQkBFhdyb3V0ZXJ0ZXN0QGVwcm9zaW1hLmNvbTAeFw0yMzEy
MjcwOTAxMTNaFw0zMzEyMjQwOTAxMTNaMHQxCzAJBgNVBAYTAkVTMQswCQYDVQQI
DAJNQTERMA8GA1UECgwIZVByb3NpbWExHTAbBgNVBAMMFEJhY2tkb29yVGVzdExv
Y2FsUHViMSYwJAYJKoZIhvcNAQkBFhdyb3V0ZXJ0ZXN0QGVwcm9zaW1hLmNvbTBZ
MBMGByqGSM49AgEGCCqGSM49AwEHA0IABPF+MF/lkvEiLUCMNk5dMhGEc66tmQL1
S1rUbi+YCrOVIUgFmEXD7V9VB2JP8zrL7oNZddMp0c6RrEazpNosAZEwCgYIKoZI
zj0EAwIDRwAwRAIgdnuq5KH86tPRB3CZHsK7lFGOgLurfEnKgeU0p1Sbm1ICIAtA
tmAkAtpRF7jDHHTMSD7mINmej3l38iVpqLD6GMIZ
-----END CERTIFICATE-----
