Certificate:
    Data:
        Version: 1 (0x0)
        Serial Number:
            14:fc:37:c5:4b:37:04:7f:91:9e:bd:77:b5:06:59:e5:19:cb:64:85
        Signature Algorithm: ecdsa-with-SHA256
        Issuer: C=ES, ST=MA, L=Tres Cantos, O=eProsima, CN=eProsima Main Test CA/emailAddress=routertest@eprosima.com
        Validity
            Not Before: Apr 14 13:48:21 2026 GMT
            Not After : Apr 11 13:48:21 2036 GMT
        Subject: C=ES, ST=MA, O=eProsima, CN=BackdoorTestLocalPub/emailAddress=routertest@eprosima.com
        Subject Public Key Info:
            Public Key Algorithm: id-ecPublicKey
                Public-Key: (256 bit)
                pub:
                    04:56:90:95:a1:21:2a:12:73:2e:1f:69:25:0d:3f:
                    88:e9:17:58:de:d6:c2:5d:d4:88:f1:af:59:18:19:
                    88:da:78:f8:6f:be:67:b0:be:8f:09:e9:ab:2c:dc:
                    e9:4e:7b:56:a6:ce:71:58:fd:fd:14:8e:40:73:3f:
                    72:55:cd:64:1f
                ASN1 OID: prime256v1
                NIST CURVE: P-256
    Signature Algorithm: ecdsa-with-SHA256
    Signature Value:
        30:46:02:21:00:93:4e:36:42:b9:c6:5e:db:68:ae:a3:9b:b7:
        82:a2:01:4c:5a:a8:50:7d:08:32:2a:43:b0:d5:37:82:ce:b4:
        69:02:21:00:e9:0b:b1:80:28:ab:f0:3b:08:8c:73:8a:03:e4:
        12:2d:46:80:46:1a:09:8b:94:b2:4a:1e:dd:4c:d9:fc:27:71
-----BEGIN CERTIFICATE-----
MIIB/DCCAaECFBT8N8VLNwR/kZ69d7UGWeUZy2SFMAoGCCqGSM49BAMCMIGLMQsw
CQYDVQQGEwJFUzELMAkGA1UECAwCTUExFDASBgNVBAcMC1RyZXMgQ2FudG9zMREw
DwYDVQQKDAhlUHJvc2ltYTEeMBwGA1UEAwwVZVByb3NpbWEgTWFpbiBUZXN0IENB
MSYwJAYJKoZIhvcNAQkBFhdyb3V0ZXJ0ZXN0QGVwcm9zaW1hLmNvbTAeFw0yNjA0
MTQxMzQ4MjFaFw0zNjA0MTExMzQ4MjFaMHQxCzAJBgNVBAYTAkVTMQswCQYDVQQI
DAJNQTERMA8GA1UECgwIZVByb3NpbWExHTAbBgNVBAMMFEJhY2tkb29yVGVzdExv
Y2FsUHViMSYwJAYJKoZIhvcNAQkBFhdyb3V0ZXJ0ZXN0QGVwcm9zaW1hLmNvbTBZ
MBMGByqGSM49AgEGCCqGSM49AwEHA0IABFaQlaEhKhJzLh9pJQ0/iOkXWN7Wwl3U
iPGvWRgZiNp4+G++Z7C+jwnpqyzc6U57VqbOcVj9/RSOQHM/clXNZB8wCgYIKoZI
zj0EAwIDSQAwRgIhAJNONkK5xl7baK6jm7eCogFMWqhQfQgyKkOw1TeCzrRpAiEA
6QuxgCir8DsIjHOKA+QSLUaARhoJi5SySh7dTNn8J3E=
-----END CERTIFICATE-----
