Certificate:
    Data:
        Version: 1 (0x0)
        Serial Number:
            08:8b:de:58:90:bf:d3:09:ee:44:3b:f5:b7:40:fc:9c:17:c2:d6:3c
        Signature Algorithm: ecdsa-with-SHA256
        Issuer: C=ES, ST=MA, L=Tres Cantos, O=eProsima, CN=eProsima Main Test CA/emailAddress=routertest@eprosima.com
        Validity
            Not Before: Dec 22 07:04:11 2023 GMT
            Not After : Dec 19 07:04:11 2033 GMT
        Subject: C=ES, ST=MA, O=eProsima, CN=BackdoorTestLocalPub/emailAddress=routertest@eprosima.com
        Subject Public Key Info:
            Public Key Algorithm: id-ecPublicKey
                Public-Key: (256 bit)
                pub:
                    04:c5:21:81:c4:80:a7:88:f9:79:ba:44:c8:a6:74:
                    00:a9:81:06:bc:b9:2f:9a:96:4b:be:e0:96:dd:0d:
                    de:ff:fc:85:fa:30:88:59:9c:86:f9:04:84:e1:5e:
                    47:40:d2:b5:2b:48:67:c3:96:21:5e:ee:8a:c9:2f:
                    21:e1:02:a8:67
                ASN1 OID: prime256v1
                NIST CURVE: P-256
    Signature Algorithm: ecdsa-with-SHA256
    Signature Value:
        30:46:02:21:00:89:ba:b1:d5:5c:8e:ea:f0:d6:61:bb:d5:4c:
        83:6a:b5:91:f5:3d:98:c1:af:c9:72:82:bb:40:ba:e9:2a:be:
        43:02:21:00:de:58:9b:7c:06:6b:02:46:e4:77:96:ca:78:9d:
        ed:c9:52:fd:cb:15:18:27:54:80:85:0d:28:3a:05:83:93:ca
-----BEGIN CERTIFICATE-----
MIIB/DCCAaECFAiL3liQv9MJ7kQ79bdA/JwXwtY8MAoGCCqGSM49BAMCMIGLMQsw
CQYDVQQGEwJFUzELMAkGA1UECAwCTUExFDASBgNVBAcMC1RyZXMgQ2FudG9zMREw
DwYDVQQKDAhlUHJvc2ltYTEeMBwGA1UEAwwVZVByb3NpbWEgTWFpbiBUZXN0IENB
MSYwJAYJKoZIhvcNAQkBFhdyb3V0ZXJ0ZXN0QGVwcm9zaW1hLmNvbTAeFw0yMzEy
MjIwNzA0MTFaFw0zMzEyMTkwNzA0MTFaMHQxCzAJBgNVBAYTAkVTMQswCQYDVQQI
DAJNQTERMA8GA1UECgwIZVByb3NpbWExHTAbBgNVBAMMFEJhY2tkb29yVGVzdExv
Y2FsUHViMSYwJAYJKoZIhvcNAQkBFhdyb3V0ZXJ0ZXN0QGVwcm9zaW1hLmNvbTBZ
MBMGByqGSM49AgEGCCqGSM49AwEHA0IABMUhgcSAp4j5ebpEyKZ0AKmBBry5L5qW
S77glt0N3v/8hfowiFmchvkEhOFeR0DStStIZ8OWIV7uiskvIeECqGcwCgYIKoZI
zj0EAwIDSQAwRgIhAIm6sdVcjurw1mG71UyDarWR9T2Ywa/JcoK7QLrpKr5DAiEA
3libfAZrAkbkd5bKeJ3tyVL9yxUYJ1SAhQ0oOgWDk8o=
-----END CERTIFICATE-----
