Certificate:
    Data:
        Version: 1 (0x0)
        Serial Number:
            14:fc:37:c5:4b:37:04:7f:91:9e:bd:77:b5:06:59:e5:19:cb:64:86
        Signature Algorithm: ecdsa-with-SHA256
        Issuer: C=ES, ST=MA, L=Tres Cantos, O=eProsima, CN=eProsima Main Test CA/emailAddress=routertest@eprosima.com
        Validity
            Not Before: Apr 14 13:48:21 2026 GMT
            Not After : Apr 11 13:48:21 2036 GMT
        Subject: C=ES, ST=MA, O=eProsima, CN=BackdoorTestLocalSub/emailAddress=routertest@eprosima.com
        Subject Public Key Info:
            Public Key Algorithm: id-ecPublicKey
                Public-Key: (256 bit)
                pub:
                    04:22:93:e0:e1:51:a2:2a:a8:6e:05:20:cf:e8:8f:
                    9e:18:8f:f7:38:e2:c9:55:69:7f:31:73:f7:85:9d:
                    7f:17:bf:e9:af:3b:cf:f9:a5:a8:22:8a:2a:aa:62:
                    02:c0:71:d2:20:4b:78:1e:e4:0a:26:fe:e7:5f:61:
                    35:06:ea:92:3c
                ASN1 OID: prime256v1
                NIST CURVE: P-256
    Signature Algorithm: ecdsa-with-SHA256
    Signature Value:
        30:44:02:20:77:61:43:55:27:b4:26:65:02:6d:46:6f:c4:e4:
        22:b2:de:3c:ef:64:f6:5c:01:35:73:e1:52:96:44:de:b2:86:
        02:20:68:85:27:53:1f:b1:dc:9c:3f:44:21:97:2e:eb:0c:c0:
        5e:d5:a5:92:13:2f:21:50:80:0a:f7:4e:15:9c:a3:73
-----BEGIN CERTIFICATE-----
MIIB+jCCAaECFBT8N8VLNwR/kZ69d7UGWeUZy2SGMAoGCCqGSM49BAMCMIGLMQsw
CQYDVQQGEwJFUzELMAkGA1UECAwCTUExFDASBgNVBAcMC1RyZXMgQ2FudG9zMREw
DwYDVQQKDAhlUHJvc2ltYTEeMBwGA1UEAwwVZVByb3NpbWEgTWFpbiBUZXN0IENB
MSYwJAYJKoZIhvcNAQkBFhdyb3V0ZXJ0ZXN0QGVwcm9zaW1hLmNvbTAeFw0yNjA0
MTQxMzQ4MjFaFw0zNjA0MTExMzQ4MjFaMHQxCzAJBgNVBAYTAkVTMQswCQYDVQQI
DAJNQTERMA8GA1UECgwIZVByb3NpbWExHTAbBgNVBAMMFEJhY2tkb29yVGVzdExv
Y2FsU3ViMSYwJAYJKoZIhvcNAQkBFhdyb3V0ZXJ0ZXN0QGVwcm9zaW1hLmNvbTBZ
MBMGByqGSM49AgEGCCqGSM49AwEHA0IABCKT4OFRoiqobgUgz+iPnhiP9zjiyVVp
fzFz94Wdfxe/6a87z/mlqCKKKqpiAsBx0iBLeB7kCib+519hNQbqkjwwCgYIKoZI
zj0EAwIDRwAwRAIgd2FDVSe0JmUCbUZvxOQist4872T2XAE1c+FSlkTesoYCIGiF
J1MfsdycP0Qhly7rDMBe1aWSEy8hUIAK904VnKNz
-----END CERTIFICATE-----
