Certificate:
    Data:
        Version: 1 (0x0)
        Serial Number:
            16:6a:43:4a:86:d0:0e:f6:17:d7:a3:96:15:ea:f9:e1:04:5d:ad:80
        Signature Algorithm: ecdsa-with-SHA256
        Issuer: C=ES, ST=MA, L=Tres Cantos, O=eProsima, CN=eProsima Main Test CA/emailAddress=routertest@eprosima.com
        Validity
            Not Before: Dec 27 09:01:13 2023 GMT
            Not After : Dec 24 09:01:13 2033 GMT
        Subject: C=ES, ST=MA, O=eProsima, CN=BackdoorTestLocalSub/emailAddress=routertest@eprosima.com
        Subject Public Key Info:
            Public Key Algorithm: id-ecPublicKey
                Public-Key: (256 bit)
                pub:
                    04:54:68:42:76:79:dc:d8:a6:b9:92:b8:fc:90:e8:
                    97:de:8c:50:c6:33:2c:05:2b:66:85:6a:d4:d2:95:
                    53:65:2b:18:08:a5:11:a9:fa:61:88:bc:0b:e9:15:
                    8d:2f:3b:5a:91:4e:a9:60:fe:d0:05:a2:ec:06:04:
                    1d:c8:33:ef:ba
                ASN1 OID: prime256v1
                NIST CURVE: P-256
    Signature Algorithm: ecdsa-with-SHA256
    Signature Value:
        30:46:02:21:00:bd:a6:ba:0b:27:27:31:9e:61:7b:19:13:14:
        8f:82:61:fd:ee:b8:90:a0:30:f7:bc:5d:a5:85:a7:c8:c4:06:
        e1:02:21:00:e2:34:58:d1:62:81:d3:fe:3f:79:fb:51:d0:da:
        84:14:2a:46:ac:ff:a1:9d:a5:90:25:a2:d9:57:a4:c6:c1:ab
-----BEGIN CERTIFICATE-----
MIIB/DCCAaECFBZqQ0qG0A72F9ejlhXq+eEEXa2AMAoGCCqGSM49BAMCMIGLMQsw
CQYDVQQGEwJFUzELMAkGA1UECAwCTUExFDASBgNVBAcMC1RyZXMgQ2FudG9zMREw
DwYDVQQKDAhlUHJvc2ltYTEeMBwGA1UEAwwVZVByb3NpbWEgTWFpbiBUZXN0IENB
MSYwJAYJKoZIhvcNAQkBFhdyb3V0ZXJ0ZXN0QGVwcm9zaW1hLmNvbTAeFw0yMzEy
MjcwOTAxMTNaFw0zMzEyMjQwOTAxMTNaMHQxCzAJBgNVBAYTAkVTMQswCQYDVQQI
DAJNQTERMA8GA1UECgwIZVByb3NpbWExHTAbBgNVBAMMFEJhY2tkb29yVGVzdExv
Y2FsU3ViMSYwJAYJKoZIhvcNAQkBFhdyb3V0ZXJ0ZXN0QGVwcm9zaW1hLmNvbTBZ
MBMGByqGSM49AgEGCCqGSM49AwEHA0IABFRoQnZ53NimuZK4/JDol96MUMYzLAUr
ZoVq1NKVU2UrGAilEan6YYi8C+kVjS87WpFOqWD+0AWi7AYEHcgz77owCgYIKoZI
zj0EAwIDSQAwRgIhAL2mugsnJzGeYXsZExSPgmH97riQoDD3vF2lhafIxAbhAiEA
4jRY0WKB0/4/eftR0NqEFCpGrP+hnaWQJaLZV6TGwas=
-----END CERTIFICATE-----
