Certificate:
    Data:
        Version: 1 (0x0)
        Serial Number:
            0b:f2:b1:fd:36:73:e0:e1:e9:02:9d:00:d1:e5:c7:d7:6b:b8:41:75
        Signature Algorithm: ecdsa-with-SHA256
        Issuer: C=ES, ST=MA, L=Tres Cantos, O=eProsima, CN=eProsima Main Test CA/emailAddress=routertest@eprosima.com
        Validity
            Not Before: Mar 24 10:32:59 2025 GMT
            Not After : Mar 22 10:32:59 2035 GMT
        Subject: C=ES, ST=MA, O=eProsima, CN=BackdoorTestLocalPub/emailAddress=routertest@eprosima.com
        Subject Public Key Info:
            Public Key Algorithm: id-ecPublicKey
                Public-Key: (256 bit)
                pub:
                    04:9b:09:0f:ba:eb:f9:1d:7e:d6:d2:0f:fe:fe:52:
                    9f:ec:c8:95:e5:57:2f:d0:a9:3d:6c:f5:0f:0b:b8:
                    13:cd:01:4e:0b:85:0d:cd:5a:d5:e5:f7:c3:3a:b6:
                    dc:22:27:68:7d:e9:de:93:f3:73:c8:0a:b0:47:fe:
                    7d:5c:6d:ce:ad
                ASN1 OID: prime256v1
                NIST CURVE: P-256
    Signature Algorithm: ecdsa-with-SHA256
    Signature Value:
        30:45:02:20:7d:c7:4d:f5:dd:d4:29:48:6d:9b:b8:9a:69:88:
        47:22:cc:14:a8:c9:eb:6b:86:82:82:ab:75:7c:5f:20:7e:21:
        02:21:00:d2:29:73:8c:e3:c6:dd:d0:a0:a0:54:99:01:da:bf:
        c6:c5:64:ed:d5:4e:a3:3a:7d:a5:20:0d:32:b4:88:57:4f
-----BEGIN CERTIFICATE-----
MIIB+zCCAaECFAvysf02c+Dh6QKdANHlx9druEF1MAoGCCqGSM49BAMCMIGLMQsw
CQYDVQQGEwJFUzELMAkGA1UECAwCTUExFDASBgNVBAcMC1RyZXMgQ2FudG9zMREw
DwYDVQQKDAhlUHJvc2ltYTEeMBwGA1UEAwwVZVByb3NpbWEgTWFpbiBUZXN0IENB
MSYwJAYJKoZIhvcNAQkBFhdyb3V0ZXJ0ZXN0QGVwcm9zaW1hLmNvbTAeFw0yNTAz
MjQxMDMyNTlaFw0zNTAzMjIxMDMyNTlaMHQxCzAJBgNVBAYTAkVTMQswCQYDVQQI
DAJNQTERMA8GA1UECgwIZVByb3NpbWExHTAbBgNVBAMMFEJhY2tkb29yVGVzdExv
Y2FsUHViMSYwJAYJKoZIhvcNAQkBFhdyb3V0ZXJ0ZXN0QGVwcm9zaW1hLmNvbTBZ
MBMGByqGSM49AgEGCCqGSM49AwEHA0IABJsJD7rr+R1+1tIP/v5Sn+zIleVXL9Cp
PWz1Dwu4E80BTguFDc1a1eX3wzq23CInaH3p3pPzc8gKsEf+fVxtzq0wCgYIKoZI
zj0EAwIDSAAwRQIgfcdN9d3UKUhtm7iaaYhHIswUqMnra4aCgqt1fF8gfiECIQDS
KXOM48bd0KCgVJkB2r/GxWTt1U6jOn2lIA0ytIhXTw==
-----END CERTIFICATE-----
