Certificate:
    Data:
        Version: 1 (0x0)
        Serial Number:
            0b:f2:b1:fd:36:73:e0:e1:e9:02:9d:00:d1:e5:c7:d7:6b:b8:41:76
        Signature Algorithm: ecdsa-with-SHA256
        Issuer: C=ES, ST=MA, L=Tres Cantos, O=eProsima, CN=eProsima Main Test CA/emailAddress=routertest@eprosima.com
        Validity
            Not Before: Mar 24 10:32:59 2025 GMT
            Not After : Mar 22 10:32:59 2035 GMT
        Subject: C=ES, ST=MA, O=eProsima, CN=BackdoorTestLocalSub/emailAddress=routertest@eprosima.com
        Subject Public Key Info:
            Public Key Algorithm: id-ecPublicKey
                Public-Key: (256 bit)
                pub:
                    04:ca:d4:9e:bc:09:1e:60:01:ff:a9:06:41:00:13:
                    a9:df:7a:f8:7a:b8:0b:86:7e:96:69:a3:e6:67:b8:
                    5b:8e:d9:32:5a:b3:53:0d:fc:32:70:1c:a6:c0:9f:
                    04:97:b1:84:e9:78:9c:c8:8a:eb:20:eb:d9:6d:12:
                    a0:5a:4f:ad:8c
                ASN1 OID: prime256v1
                NIST CURVE: P-256
    Signature Algorithm: ecdsa-with-SHA256
    Signature Value:
        30:44:02:20:1e:b4:06:b3:1d:26:54:b4:99:5f:7d:5c:54:b2:
        70:07:56:40:ab:6a:71:a2:13:3a:0d:0d:af:ee:66:32:98:fc:
        02:20:1c:00:8e:4f:b4:d7:85:29:c5:b3:89:d1:04:5a:f4:c1:
        f4:f4:57:93:68:0d:f8:de:a1:48:90:82:a6:70:f3:f3
-----BEGIN CERTIFICATE-----
MIIB+jCCAaECFAvysf02c+Dh6QKdANHlx9druEF2MAoGCCqGSM49BAMCMIGLMQsw
CQYDVQQGEwJFUzELMAkGA1UECAwCTUExFDASBgNVBAcMC1RyZXMgQ2FudG9zMREw
DwYDVQQKDAhlUHJvc2ltYTEeMBwGA1UEAwwVZVByb3NpbWEgTWFpbiBUZXN0IENB
MSYwJAYJKoZIhvcNAQkBFhdyb3V0ZXJ0ZXN0QGVwcm9zaW1hLmNvbTAeFw0yNTAz
MjQxMDMyNTlaFw0zNTAzMjIxMDMyNTlaMHQxCzAJBgNVBAYTAkVTMQswCQYDVQQI
DAJNQTERMA8GA1UECgwIZVByb3NpbWExHTAbBgNVBAMMFEJhY2tkb29yVGVzdExv
Y2FsU3ViMSYwJAYJKoZIhvcNAQkBFhdyb3V0ZXJ0ZXN0QGVwcm9zaW1hLmNvbTBZ
MBMGByqGSM49AgEGCCqGSM49AwEHA0IABMrUnrwJHmAB/6kGQQATqd96+Hq4C4Z+
lmmj5me4W47ZMlqzUw38MnAcpsCfBJexhOl4nMiK6yDr2W0SoFpPrYwwCgYIKoZI
zj0EAwIDRwAwRAIgHrQGsx0mVLSZX31cVLJwB1ZAq2pxohM6DQ2v7mYymPwCIBwA
jk+014UpxbOJ0QRa9MH09FeTaA343qFIkIKmcPPz
-----END CERTIFICATE-----
