Certificate:
    Data:
        Version: 1 (0x0)
        Serial Number:
            08:8b:de:58:90:bf:d3:09:ee:44:3b:f5:b7:40:fc:9c:17:c2:d6:3d
        Signature Algorithm: ecdsa-with-SHA256
        Issuer: C=ES, ST=MA, L=Tres Cantos, O=eProsima, CN=eProsima Main Test CA/emailAddress=routertest@eprosima.com
        Validity
            Not Before: Dec 22 07:04:11 2023 GMT
            Not After : Dec 19 07:04:11 2033 GMT
        Subject: C=ES, ST=MA, O=eProsima, CN=BackdoorTestLocalSub/emailAddress=routertest@eprosima.com
        Subject Public Key Info:
            Public Key Algorithm: id-ecPublicKey
                Public-Key: (256 bit)
                pub:
                    04:32:a3:6a:98:5a:4e:b5:8d:d3:04:15:7c:2a:6f:
                    aa:66:d5:67:ec:dc:60:48:b5:7d:cd:03:08:50:d6:
                    7c:a7:e7:6a:dd:0c:5e:6d:29:c0:66:ca:c6:24:d8:
                    af:4a:f7:7f:44:9e:dd:fc:fb:4c:e8:5a:6d:15:19:
                    f6:b4:74:4a:b7
                ASN1 OID: prime256v1
                NIST CURVE: P-256
    Signature Algorithm: ecdsa-with-SHA256
    Signature Value:
        30:46:02:21:00:94:63:19:0e:fd:a5:ad:54:d2:f0:ec:bd:15:
        8f:28:8d:51:fc:34:a5:2c:6a:07:de:a1:b2:b7:9e:58:ce:f4:
        21:02:21:00:9e:0f:0a:81:89:4d:19:85:b2:1d:f4:de:9a:50:
        11:59:4f:32:9b:d0:32:21:40:58:86:07:c7:4c:e6:8d:75:81
-----BEGIN CERTIFICATE-----
MIIB/DCCAaECFAiL3liQv9MJ7kQ79bdA/JwXwtY9MAoGCCqGSM49BAMCMIGLMQsw
CQYDVQQGEwJFUzELMAkGA1UECAwCTUExFDASBgNVBAcMC1RyZXMgQ2FudG9zMREw
DwYDVQQKDAhlUHJvc2ltYTEeMBwGA1UEAwwVZVByb3NpbWEgTWFpbiBUZXN0IENB
MSYwJAYJKoZIhvcNAQkBFhdyb3V0ZXJ0ZXN0QGVwcm9zaW1hLmNvbTAeFw0yMzEy
MjIwNzA0MTFaFw0zMzEyMTkwNzA0MTFaMHQxCzAJBgNVBAYTAkVTMQswCQYDVQQI
DAJNQTERMA8GA1UECgwIZVByb3NpbWExHTAbBgNVBAMMFEJhY2tkb29yVGVzdExv
Y2FsU3ViMSYwJAYJKoZIhvcNAQkBFhdyb3V0ZXJ0ZXN0QGVwcm9zaW1hLmNvbTBZ
MBMGByqGSM49AgEGCCqGSM49AwEHA0IABDKjaphaTrWN0wQVfCpvqmbVZ+zcYEi1
fc0DCFDWfKfnat0MXm0pwGbKxiTYr0r3f0Se3fz7TOhabRUZ9rR0SrcwCgYIKoZI
zj0EAwIDSQAwRgIhAJRjGQ79pa1U0vDsvRWPKI1R/DSlLGoH3qGyt55YzvQhAiEA
ng8KgYlNGYWyHfTemlARWU8ym9AyIUBYhgfHTOaNdYE=
-----END CERTIFICATE-----
