Certificate:
    Data:
        Version: 1 (0x0)
        Serial Number:
            08:8b:de:58:90:bf:d3:09:ee:44:3b:f5:b7:40:fc:9c:17:c2:d6:3e
        Signature Algorithm: ecdsa-with-SHA256
        Issuer: C=ES, ST=MA, L=Tres Cantos, O=eProsima, CN=eProsima Main Test CA/emailAddress=routertest@eprosima.com
        Validity
            Not Before: Dec 22 07:04:11 2023 GMT
            Not After : Dec 19 07:04:11 2033 GMT
        Subject: C=ES, ST=MA, O=eProsima, CN=BackdoorTestRouter/emailAddress=routertest@eprosima.com
        Subject Public Key Info:
            Public Key Algorithm: id-ecPublicKey
                Public-Key: (256 bit)
                pub:
                    04:3e:51:8b:de:5e:95:ba:ba:0b:f1:5b:8d:51:f5:
                    70:1b:b5:77:99:07:28:a7:cf:cc:be:4a:83:58:6a:
                    5e:d0:d7:99:80:98:f0:76:e9:13:a6:d3:2c:83:4b:
                    40:54:6e:ee:7d:95:2d:d3:e7:18:4a:20:f3:d3:d8:
                    c4:fa:66:b2:33
                ASN1 OID: prime256v1
                NIST CURVE: P-256
    Signature Algorithm: ecdsa-with-SHA256
    Signature Value:
        30:45:02:21:00:c9:d2:c8:74:43:77:48:d6:76:3c:6e:05:4b:
        cd:7f:c4:66:dc:1d:d5:90:a3:f3:e8:0d:cf:b3:3d:88:48:a5:
        4f:02:20:4e:05:90:aa:49:43:f7:c5:bd:a6:c9:aa:5a:88:4e:
        56:d0:26:2f:96:4d:5f:72:ca:88:fd:ee:02:84:65:5c:0f
-----BEGIN CERTIFICATE-----
MIIB+TCCAZ8CFAiL3liQv9MJ7kQ79bdA/JwXwtY+MAoGCCqGSM49BAMCMIGLMQsw
CQYDVQQGEwJFUzELMAkGA1UECAwCTUExFDASBgNVBAcMC1RyZXMgQ2FudG9zMREw
DwYDVQQKDAhlUHJvc2ltYTEeMBwGA1UEAwwVZVByb3NpbWEgTWFpbiBUZXN0IENB
MSYwJAYJKoZIhvcNAQkBFhdyb3V0ZXJ0ZXN0QGVwcm9zaW1hLmNvbTAeFw0yMzEy
MjIwNzA0MTFaFw0zMzEyMTkwNzA0MTFaMHIxCzAJBgNVBAYTAkVTMQswCQYDVQQI
DAJNQTERMA8GA1UECgwIZVByb3NpbWExGzAZBgNVBAMMEkJhY2tkb29yVGVzdFJv
dXRlcjEmMCQGCSqGSIb3DQEJARYXcm91dGVydGVzdEBlcHJvc2ltYS5jb20wWTAT
BgcqhkjOPQIBBggqhkjOPQMBBwNCAAQ+UYveXpW6ugvxW41R9XAbtXeZByinz8y+
SoNYal7Q15mAmPB26ROm0yyDS0BUbu59lS3T5xhKIPPT2MT6ZrIzMAoGCCqGSM49
BAMCA0gAMEUCIQDJ0sh0Q3dI1nY8bgVLzX/EZtwd1ZCj8+gNz7M9iEilTwIgTgWQ
qklD98W9psmqWohOVtAmL5ZNX3LKiP3uAoRlXA8=
-----END CERTIFICATE-----
