Certificate:
    Data:
        Version: 1 (0x0)
        Serial Number:
            16:6a:43:4a:86:d0:0e:f6:17:d7:a3:96:15:ea:f9:e1:04:5d:ad:81
        Signature Algorithm: ecdsa-with-SHA256
        Issuer: C=ES, ST=MA, L=Tres Cantos, O=eProsima, CN=eProsima Main Test CA/emailAddress=routertest@eprosima.com
        Validity
            Not Before: Dec 27 09:01:14 2023 GMT
            Not After : Dec 24 09:01:14 2033 GMT
        Subject: C=ES, ST=MA, O=eProsima, CN=BackdoorTestRouter/emailAddress=routertest@eprosima.com
        Subject Public Key Info:
            Public Key Algorithm: id-ecPublicKey
                Public-Key: (256 bit)
                pub:
                    04:0d:1b:41:30:ef:83:a2:38:a9:b6:9b:6e:1d:02:
                    59:ad:ae:9d:dd:37:95:86:e4:12:d6:a6:f1:e2:f5:
                    3b:34:ac:25:e1:4f:21:f2:75:c8:bc:ba:0b:03:35:
                    e4:c7:08:76:d5:bf:93:03:48:a9:08:4e:ab:d6:b9:
                    29:5a:c1:be:ed
                ASN1 OID: prime256v1
                NIST CURVE: P-256
    Signature Algorithm: ecdsa-with-SHA256
    Signature Value:
        30:45:02:20:5c:71:16:ee:3f:00:1f:50:32:fa:65:a5:82:45:
        8e:ec:78:92:62:31:28:6a:03:6f:ae:fa:7a:d2:4e:af:ab:81:
        02:21:00:cc:b0:ee:93:f3:13:96:11:28:15:68:7a:d2:64:6a:
        f1:df:49:c0:b3:b7:e8:fd:3b:00:33:ea:c9:aa:43:fe:6c
-----BEGIN CERTIFICATE-----
MIIB+TCCAZ8CFBZqQ0qG0A72F9ejlhXq+eEEXa2BMAoGCCqGSM49BAMCMIGLMQsw
CQYDVQQGEwJFUzELMAkGA1UECAwCTUExFDASBgNVBAcMC1RyZXMgQ2FudG9zMREw
DwYDVQQKDAhlUHJvc2ltYTEeMBwGA1UEAwwVZVByb3NpbWEgTWFpbiBUZXN0IENB
MSYwJAYJKoZIhvcNAQkBFhdyb3V0ZXJ0ZXN0QGVwcm9zaW1hLmNvbTAeFw0yMzEy
MjcwOTAxMTRaFw0zMzEyMjQwOTAxMTRaMHIxCzAJBgNVBAYTAkVTMQswCQYDVQQI
DAJNQTERMA8GA1UECgwIZVByb3NpbWExGzAZBgNVBAMMEkJhY2tkb29yVGVzdFJv
dXRlcjEmMCQGCSqGSIb3DQEJARYXcm91dGVydGVzdEBlcHJvc2ltYS5jb20wWTAT
BgcqhkjOPQIBBggqhkjOPQMBBwNCAAQNG0Ew74OiOKm2m24dAlmtrp3dN5WG5BLW
pvHi9Ts0rCXhTyHydci8ugsDNeTHCHbVv5MDSKkITqvWuSlawb7tMAoGCCqGSM49
BAMCA0gAMEUCIFxxFu4/AB9QMvplpYJFjux4kmIxKGoDb676etJOr6uBAiEAzLDu
k/MTlhEoFWh60mRq8d9JwLO36P07ADPqyapD/mw=
-----END CERTIFICATE-----
