Certificate:
    Data:
        Version: 1 (0x0)
        Serial Number:
            0b:f2:b1:fd:36:73:e0:e1:e9:02:9d:00:d1:e5:c7:d7:6b:b8:41:77
        Signature Algorithm: ecdsa-with-SHA256
        Issuer: C=ES, ST=MA, L=Tres Cantos, O=eProsima, CN=eProsima Main Test CA/emailAddress=routertest@eprosima.com
        Validity
            Not Before: Mar 24 10:32:59 2025 GMT
            Not After : Mar 22 10:32:59 2035 GMT
        Subject: C=ES, ST=MA, O=eProsima, CN=BackdoorTestRouter/emailAddress=routertest@eprosima.com
        Subject Public Key Info:
            Public Key Algorithm: id-ecPublicKey
                Public-Key: (256 bit)
                pub:
                    04:38:89:26:b9:26:f3:0c:8a:d9:f0:fb:ea:7d:8e:
                    71:72:78:b8:ac:ba:aa:88:db:8a:72:ad:24:8a:28:
                    cd:54:c7:bd:34:51:fa:20:01:52:78:af:09:27:df:
                    d5:b7:9d:44:ff:21:b4:00:07:55:e1:64:88:e1:5a:
                    89:d8:67:02:a1
                ASN1 OID: prime256v1
                NIST CURVE: P-256
    Signature Algorithm: ecdsa-with-SHA256
    Signature Value:
        30:44:02:20:3d:2f:32:20:2b:51:04:c9:2c:e4:59:06:a4:41:
        b3:e5:70:d9:81:b9:82:67:6b:5f:12:77:3a:57:ff:23:44:72:
        02:20:74:db:de:ff:e6:06:7c:08:14:13:fc:4d:a0:93:dd:87:
        ec:5a:64:73:22:ce:01:c1:0b:dd:64:84:0f:8a:48:37
-----BEGIN CERTIFICATE-----
MIIB+DCCAZ8CFAvysf02c+Dh6QKdANHlx9druEF3MAoGCCqGSM49BAMCMIGLMQsw
CQYDVQQGEwJFUzELMAkGA1UECAwCTUExFDASBgNVBAcMC1RyZXMgQ2FudG9zMREw
DwYDVQQKDAhlUHJvc2ltYTEeMBwGA1UEAwwVZVByb3NpbWEgTWFpbiBUZXN0IENB
MSYwJAYJKoZIhvcNAQkBFhdyb3V0ZXJ0ZXN0QGVwcm9zaW1hLmNvbTAeFw0yNTAz
MjQxMDMyNTlaFw0zNTAzMjIxMDMyNTlaMHIxCzAJBgNVBAYTAkVTMQswCQYDVQQI
DAJNQTERMA8GA1UECgwIZVByb3NpbWExGzAZBgNVBAMMEkJhY2tkb29yVGVzdFJv
dXRlcjEmMCQGCSqGSIb3DQEJARYXcm91dGVydGVzdEBlcHJvc2ltYS5jb20wWTAT
BgcqhkjOPQIBBggqhkjOPQMBBwNCAAQ4iSa5JvMMitnw++p9jnFyeLisuqqI24py
rSSKKM1Ux700UfogAVJ4rwkn39W3nUT/IbQAB1XhZIjhWonYZwKhMAoGCCqGSM49
BAMCA0cAMEQCID0vMiArUQTJLORZBqRBs+Vw2YG5gmdrXxJ3Olf/I0RyAiB0297/
5gZ8CBQT/E2gk92H7FpkcyLOAcEL3WSED4pINw==
-----END CERTIFICATE-----
