Certificate:
    Data:
        Version: 1 (0x0)
        Serial Number:
            14:fc:37:c5:4b:37:04:7f:91:9e:bd:77:b5:06:59:e5:19:cb:64:87
        Signature Algorithm: ecdsa-with-SHA256
        Issuer: C=ES, ST=MA, L=Tres Cantos, O=eProsima, CN=eProsima Main Test CA/emailAddress=routertest@eprosima.com
        Validity
            Not Before: Apr 14 13:48:21 2026 GMT
            Not After : Apr 11 13:48:21 2036 GMT
        Subject: C=ES, ST=MA, O=eProsima, CN=BackdoorTestRouter/emailAddress=routertest@eprosima.com
        Subject Public Key Info:
            Public Key Algorithm: id-ecPublicKey
                Public-Key: (256 bit)
                pub:
                    04:44:6a:2a:9b:ac:4f:61:f3:b4:88:d1:b7:a6:f4:
                    3f:01:36:32:68:af:f2:fa:97:b9:3f:e8:ed:42:57:
                    e8:5f:61:98:9e:47:32:58:c5:0d:69:aa:04:ff:ef:
                    0d:ce:6d:03:ca:4a:a5:6d:d0:bd:96:86:f0:da:b7:
                    32:97:43:16:ec
                ASN1 OID: prime256v1
                NIST CURVE: P-256
    Signature Algorithm: ecdsa-with-SHA256
    Signature Value:
        30:44:02:20:23:ed:ce:27:99:87:98:c8:ff:5a:63:5a:b1:39:
        c9:4c:e8:bc:da:ae:20:e4:58:1a:37:05:7e:24:05:72:9b:04:
        02:20:07:39:52:20:b3:59:70:a2:6d:f1:3d:55:72:e8:f8:68:
        37:81:19:21:d1:c4:f0:45:33:7c:7e:04:4f:f8:4c:f5
-----BEGIN CERTIFICATE-----
MIIB+DCCAZ8CFBT8N8VLNwR/kZ69d7UGWeUZy2SHMAoGCCqGSM49BAMCMIGLMQsw
CQYDVQQGEwJFUzELMAkGA1UECAwCTUExFDASBgNVBAcMC1RyZXMgQ2FudG9zMREw
DwYDVQQKDAhlUHJvc2ltYTEeMBwGA1UEAwwVZVByb3NpbWEgTWFpbiBUZXN0IENB
MSYwJAYJKoZIhvcNAQkBFhdyb3V0ZXJ0ZXN0QGVwcm9zaW1hLmNvbTAeFw0yNjA0
MTQxMzQ4MjFaFw0zNjA0MTExMzQ4MjFaMHIxCzAJBgNVBAYTAkVTMQswCQYDVQQI
DAJNQTERMA8GA1UECgwIZVByb3NpbWExGzAZBgNVBAMMEkJhY2tkb29yVGVzdFJv
dXRlcjEmMCQGCSqGSIb3DQEJARYXcm91dGVydGVzdEBlcHJvc2ltYS5jb20wWTAT
BgcqhkjOPQIBBggqhkjOPQMBBwNCAAREaiqbrE9h87SI0bem9D8BNjJor/L6l7k/
6O1CV+hfYZieRzJYxQ1pqgT/7w3ObQPKSqVt0L2WhvDatzKXQxbsMAoGCCqGSM49
BAMCA0cAMEQCICPtzieZh5jI/1pjWrE5yUzovNquIORYGjcFfiQFcpsEAiAHOVIg
s1lwom3xPVVy6PhoN4EZIdHE8EUzfH4ET/hM9Q==
-----END CERTIFICATE-----
