Certificate:
    Data:
        Version: 1 (0x0)
        Serial Number:
            0f:d5:85:f4:94:95:46:90:51:c5:d7:28:dd:62:06:38:aa:01:e8:dc
        Signature Algorithm: ecdsa-with-SHA256
        Issuer: C=ES, ST=MA, L=Tres Cantos, O=eProsima, CN=eProsima Main Test CA/emailAddress=routertest@eprosima.com
        Validity
            Not Before: Jun  1 14:02:42 2023 GMT
            Not After : May 29 14:02:42 2033 GMT
        Subject: C=ES, ST=MA, O=eProsima, CN=BackdoorTestRouter/emailAddress=routertest@eprosima.com
        Subject Public Key Info:
            Public Key Algorithm: id-ecPublicKey
                Public-Key: (256 bit)
                pub:
                    04:0f:fa:d3:97:00:75:a3:93:57:36:94:4f:47:22:
                    83:b1:47:c6:e0:92:1a:d3:34:40:06:cf:32:29:f7:
                    9e:90:d9:99:2f:2c:4e:9d:7f:d3:39:03:1a:a3:8e:
                    2f:24:3b:a1:d2:64:54:53:56:4a:e9:96:60:53:10:
                    93:f4:78:36:bd
                ASN1 OID: prime256v1
                NIST CURVE: P-256
    Signature Algorithm: ecdsa-with-SHA256
    Signature Value:
        30:46:02:21:00:ab:dd:19:ab:d5:64:23:04:18:aa:c6:90:1c:
        47:73:15:b7:cd:e2:5d:9e:33:31:67:07:db:8d:03:83:36:3d:
        01:02:21:00:c0:af:e1:d6:ef:cb:bd:6a:20:5c:02:59:d2:9a:
        6d:1b:b4:9d:47:c1:ae:e7:eb:74:2a:1f:7c:74:c1:e7:17:a9
-----BEGIN CERTIFICATE-----
MIIB+jCCAZ8CFA/VhfSUlUaQUcXXKN1iBjiqAejcMAoGCCqGSM49BAMCMIGLMQsw
CQYDVQQGEwJFUzELMAkGA1UECAwCTUExFDASBgNVBAcMC1RyZXMgQ2FudG9zMREw
DwYDVQQKDAhlUHJvc2ltYTEeMBwGA1UEAwwVZVByb3NpbWEgTWFpbiBUZXN0IENB
MSYwJAYJKoZIhvcNAQkBFhdyb3V0ZXJ0ZXN0QGVwcm9zaW1hLmNvbTAeFw0yMzA2
MDExNDAyNDJaFw0zMzA1MjkxNDAyNDJaMHIxCzAJBgNVBAYTAkVTMQswCQYDVQQI
DAJNQTERMA8GA1UECgwIZVByb3NpbWExGzAZBgNVBAMMEkJhY2tkb29yVGVzdFJv
dXRlcjEmMCQGCSqGSIb3DQEJARYXcm91dGVydGVzdEBlcHJvc2ltYS5jb20wWTAT
BgcqhkjOPQIBBggqhkjOPQMBBwNCAAQP+tOXAHWjk1c2lE9HIoOxR8bgkhrTNEAG
zzIp956Q2ZkvLE6df9M5Axqjji8kO6HSZFRTVkrplmBTEJP0eDa9MAoGCCqGSM49
BAMCA0kAMEYCIQCr3Rmr1WQjBBiqxpAcR3MVt83iXZ4zMWcH240DgzY9AQIhAMCv
4dbvy71qIFwCWdKabRu0nUfBrufrdCoffHTB5xep
-----END CERTIFICATE-----
