Certificate:
    Data:
        Version: 1 (0x0)
        Serial Number:
            0f:d5:85:f4:94:95:46:90:51:c5:d7:28:dd:62:06:38:aa:01:e8:d9
        Signature Algorithm: ecdsa-with-SHA256
        Issuer: C=ES, ST=MA, L=Tres Cantos, O=eProsima, CN=eProsima Main Test CA/emailAddress=routertest@eprosima.com
        Validity
            Not Before: Jun  1 14:01:08 2023 GMT
            Not After : May 29 14:01:08 2033 GMT
        Subject: C=ES, ST=MA, O=eProsima, CN=BackdoorTestLocal/emailAddress=routertest@eprosima.com
        Subject Public Key Info:
            Public Key Algorithm: id-ecPublicKey
                Public-Key: (256 bit)
                pub:
                    04:d6:f1:b8:8e:8c:22:ab:2a:e0:75:0a:c8:25:f3:
                    6d:e5:4e:83:c1:d7:77:b5:2e:ce:4a:60:42:02:7e:
                    86:83:c2:3d:c0:01:a5:f3:bd:fa:0e:3a:a8:97:15:
                    ed:d8:fa:10:68:2b:a1:39:74:c8:84:aa:d6:39:d9:
                    24:91:39:b6:cb
                ASN1 OID: prime256v1
                NIST CURVE: P-256
    Signature Algorithm: ecdsa-with-SHA256
    Signature Value:
        30:45:02:21:00:9d:44:24:c6:e6:2f:17:8d:a3:fb:25:e7:60:
        bd:93:8a:5c:34:84:a4:c1:b6:70:6a:10:4f:42:66:3b:08:ad:
        fd:02:20:72:75:e9:f2:7c:ba:49:01:ea:e2:79:29:75:4a:56:
        8f:e3:4c:7c:b6:cd:53:98:ad:c7:a0:81:20:58:a9:b3:dd
-----BEGIN CERTIFICATE-----
MIIB+DCCAZ4CFA/VhfSUlUaQUcXXKN1iBjiqAejZMAoGCCqGSM49BAMCMIGLMQsw
CQYDVQQGEwJFUzELMAkGA1UECAwCTUExFDASBgNVBAcMC1RyZXMgQ2FudG9zMREw
DwYDVQQKDAhlUHJvc2ltYTEeMBwGA1UEAwwVZVByb3NpbWEgTWFpbiBUZXN0IENB
MSYwJAYJKoZIhvcNAQkBFhdyb3V0ZXJ0ZXN0QGVwcm9zaW1hLmNvbTAeFw0yMzA2
MDExNDAxMDhaFw0zMzA1MjkxNDAxMDhaMHExCzAJBgNVBAYTAkVTMQswCQYDVQQI
DAJNQTERMA8GA1UECgwIZVByb3NpbWExGjAYBgNVBAMMEUJhY2tkb29yVGVzdExv
Y2FsMSYwJAYJKoZIhvcNAQkBFhdyb3V0ZXJ0ZXN0QGVwcm9zaW1hLmNvbTBZMBMG
ByqGSM49AgEGCCqGSM49AwEHA0IABNbxuI6MIqsq4HUKyCXzbeVOg8HXd7Uuzkpg
QgJ+hoPCPcABpfO9+g46qJcV7dj6EGgroTl0yISq1jnZJJE5tsswCgYIKoZIzj0E
AwIDSAAwRQIhAJ1EJMbmLxeNo/sl52C9k4pcNISkwbZwahBPQmY7CK39AiBydeny
fLpJAerieSl1SlaP40x8ts1TmK3HoIEgWKmz3Q==
-----END CERTIFICATE-----
