Certificate:
    Data:
        Version: 1 (0x0)
        Serial Number:
            0f:d5:85:f4:94:95:46:90:51:c5:d7:28:dd:62:06:38:aa:01:e8:db
        Signature Algorithm: ecdsa-with-SHA256
        Issuer: C=ES, ST=MA, L=Tres Cantos, O=eProsima, CN=eProsima Main Test CA/emailAddress=routertest@eprosima.com
        Validity
            Not Before: Jun  1 14:02:42 2023 GMT
            Not After : May 29 14:02:42 2033 GMT
        Subject: C=ES, ST=MA, O=eProsima, CN=BackdoorTestLocal/emailAddress=routertest@eprosima.com
        Subject Public Key Info:
            Public Key Algorithm: id-ecPublicKey
                Public-Key: (256 bit)
                pub:
                    04:90:e4:d0:bd:6f:e0:26:c7:6a:6f:4d:e0:0a:00:
                    09:fe:24:c7:98:fa:84:44:57:1d:34:1d:13:55:c6:
                    61:fe:96:bb:4d:cc:93:01:07:e1:cf:29:b2:34:6f:
                    76:63:b2:92:bb:6f:42:c4:b8:04:f7:f5:ef:30:b5:
                    21:1e:a9:c8:63
                ASN1 OID: prime256v1
                NIST CURVE: P-256
    Signature Algorithm: ecdsa-with-SHA256
    Signature Value:
        30:45:02:20:0f:57:f0:19:c1:61:ed:84:01:8a:51:bc:90:42:
        28:9e:9e:25:a3:a9:ee:39:45:63:2f:cf:b6:68:18:21:36:00:
        02:21:00:e6:84:37:07:43:58:82:47:30:e8:5b:13:85:84:62:
        62:1e:b0:5f:fc:3d:84:d7:f6:25:28:ae:b4:c8:a2:19:5c
-----BEGIN CERTIFICATE-----
MIIB+DCCAZ4CFA/VhfSUlUaQUcXXKN1iBjiqAejbMAoGCCqGSM49BAMCMIGLMQsw
CQYDVQQGEwJFUzELMAkGA1UECAwCTUExFDASBgNVBAcMC1RyZXMgQ2FudG9zMREw
DwYDVQQKDAhlUHJvc2ltYTEeMBwGA1UEAwwVZVByb3NpbWEgTWFpbiBUZXN0IENB
MSYwJAYJKoZIhvcNAQkBFhdyb3V0ZXJ0ZXN0QGVwcm9zaW1hLmNvbTAeFw0yMzA2
MDExNDAyNDJaFw0zMzA1MjkxNDAyNDJaMHExCzAJBgNVBAYTAkVTMQswCQYDVQQI
DAJNQTERMA8GA1UECgwIZVByb3NpbWExGjAYBgNVBAMMEUJhY2tkb29yVGVzdExv
Y2FsMSYwJAYJKoZIhvcNAQkBFhdyb3V0ZXJ0ZXN0QGVwcm9zaW1hLmNvbTBZMBMG
ByqGSM49AgEGCCqGSM49AwEHA0IABJDk0L1v4CbHam9N4AoACf4kx5j6hERXHTQd
E1XGYf6Wu03MkwEH4c8psjRvdmOykrtvQsS4BPf17zC1IR6pyGMwCgYIKoZIzj0E
AwIDSAAwRQIgD1fwGcFh7YQBilG8kEIonp4lo6nuOUVjL8+2aBghNgACIQDmhDcH
Q1iCRzDoWxOFhGJiHrBf/D2E1/YlKK60yKIZXA==
-----END CERTIFICATE-----
