Certificate:
    Data:
        Version: 1 (0x0)
        Serial Number:
            10:4f:0a:18:47:3a:f7:d9:05:83:53:d2:3a:c2:57:8e:ce:71:74:57
        Signature Algorithm: ecdsa-with-SHA256
        Issuer: C=ES, ST=MA, L=Tres Cantos, O=eProsima, CN=eProsima Main Test CA/emailAddress=routertest@eprosima.com
        Validity
            Not Before: Jun  5 06:49:30 2023 GMT
            Not After : Jun  2 06:49:30 2033 GMT
        Subject: C=ES, ST=MA, O=eProsima, CN=WanTestRouterLocal0/emailAddress=routertest@eprosima.com
        Subject Public Key Info:
            Public Key Algorithm: id-ecPublicKey
                Public-Key: (256 bit)
                pub:
                    04:71:d6:d6:3d:4e:6e:73:bd:ac:02:9c:5b:69:ad:
                    3b:77:94:38:45:53:20:e5:40:a3:06:8b:63:f6:58:
                    d2:6f:84:68:6d:0a:6d:78:3b:50:2a:1f:76:6b:48:
                    e6:42:a3:cc:60:22:ae:72:7e:d2:48:de:18:39:3b:
                    f6:77:b7:c5:73
                ASN1 OID: prime256v1
                NIST CURVE: P-256
    Signature Algorithm: ecdsa-with-SHA256
    Signature Value:
        30:45:02:20:0d:10:32:d6:d0:ce:94:c4:a4:f5:2f:8b:04:80:
        ef:14:e9:a6:ad:6f:05:a4:26:07:f9:56:5e:af:ba:fd:32:4c:
        02:21:00:ce:4a:cf:63:18:d6:90:a3:71:5a:6c:57:42:d8:b7:
        dc:63:20:54:f1:dc:1d:ac:f9:ab:bb:9c:53:8e:32:ba:72
-----BEGIN CERTIFICATE-----
MIIB+jCCAaACFBBPChhHOvfZBYNT0jrCV47OcXRXMAoGCCqGSM49BAMCMIGLMQsw
CQYDVQQGEwJFUzELMAkGA1UECAwCTUExFDASBgNVBAcMC1RyZXMgQ2FudG9zMREw
DwYDVQQKDAhlUHJvc2ltYTEeMBwGA1UEAwwVZVByb3NpbWEgTWFpbiBUZXN0IENB
MSYwJAYJKoZIhvcNAQkBFhdyb3V0ZXJ0ZXN0QGVwcm9zaW1hLmNvbTAeFw0yMzA2
MDUwNjQ5MzBaFw0zMzA2MDIwNjQ5MzBaMHMxCzAJBgNVBAYTAkVTMQswCQYDVQQI
DAJNQTERMA8GA1UECgwIZVByb3NpbWExHDAaBgNVBAMME1dhblRlc3RSb3V0ZXJM
b2NhbDAxJjAkBgkqhkiG9w0BCQEWF3JvdXRlcnRlc3RAZXByb3NpbWEuY29tMFkw
EwYHKoZIzj0CAQYIKoZIzj0DAQcDQgAEcdbWPU5uc72sApxbaa07d5Q4RVMg5UCj
Botj9ljSb4RobQpteDtQKh92a0jmQqPMYCKucn7SSN4YOTv2d7fFczAKBggqhkjO
PQQDAgNIADBFAiANEDLW0M6UxKT1L4sEgO8U6aatbwWkJgf5Vl6vuv0yTAIhAM5K
z2MY1pCjcVpsV0LYt9xjIFTx3B2s+au7nFOOMrpy
-----END CERTIFICATE-----
