Certificate:
    Data:
        Version: 1 (0x0)
        Serial Number:
            10:4f:0a:18:47:3a:f7:d9:05:83:53:d2:3a:c2:57:8e:ce:71:74:5b
        Signature Algorithm: ecdsa-with-SHA256
        Issuer: C=ES, ST=MA, L=Tres Cantos, O=eProsima, CN=eProsima Main Test CA/emailAddress=routertest@eprosima.com
        Validity
            Not Before: Jun  5 06:50:48 2023 GMT
            Not After : Jun  2 06:50:48 2033 GMT
        Subject: C=ES, ST=MA, O=eProsima, CN=WanTestLocal0/emailAddress=routertest@eprosima.com
        Subject Public Key Info:
            Public Key Algorithm: id-ecPublicKey
                Public-Key: (256 bit)
                pub:
                    04:87:21:50:29:88:40:42:e7:be:33:1b:dd:90:2e:
                    ed:3a:6b:53:9b:d8:6c:d7:b0:44:42:dc:2f:51:7f:
                    0f:f5:12:dc:62:b2:cd:86:e1:42:e9:dd:4f:54:56:
                    5f:f8:60:de:36:7c:86:96:f8:84:d4:a3:8f:17:fa:
                    84:22:d7:97:8e
                ASN1 OID: prime256v1
                NIST CURVE: P-256
    Signature Algorithm: ecdsa-with-SHA256
    Signature Value:
        30:46:02:21:00:c9:10:e8:e7:c1:05:68:9a:7c:cf:f2:4a:93:
        0d:bb:2d:16:4a:38:c6:29:cc:51:05:d6:b1:88:61:aa:88:d8:
        6d:02:21:00:9a:ea:02:84:e4:66:17:1b:96:92:7b:e5:12:44:
        b4:c4:2c:bd:33:f4:32:7c:fc:6f:5b:d5:63:77:ca:2c:2b:79
-----BEGIN CERTIFICATE-----
MIIB9TCCAZoCFBBPChhHOvfZBYNT0jrCV47OcXRbMAoGCCqGSM49BAMCMIGLMQsw
CQYDVQQGEwJFUzELMAkGA1UECAwCTUExFDASBgNVBAcMC1RyZXMgQ2FudG9zMREw
DwYDVQQKDAhlUHJvc2ltYTEeMBwGA1UEAwwVZVByb3NpbWEgTWFpbiBUZXN0IENB
MSYwJAYJKoZIhvcNAQkBFhdyb3V0ZXJ0ZXN0QGVwcm9zaW1hLmNvbTAeFw0yMzA2
MDUwNjUwNDhaFw0zMzA2MDIwNjUwNDhaMG0xCzAJBgNVBAYTAkVTMQswCQYDVQQI
DAJNQTERMA8GA1UECgwIZVByb3NpbWExFjAUBgNVBAMMDVdhblRlc3RMb2NhbDAx
JjAkBgkqhkiG9w0BCQEWF3JvdXRlcnRlc3RAZXByb3NpbWEuY29tMFkwEwYHKoZI
zj0CAQYIKoZIzj0DAQcDQgAEhyFQKYhAQue+MxvdkC7tOmtTm9hs17BEQtwvUX8P
9RLcYrLNhuFC6d1PVFZf+GDeNnyGlviE1KOPF/qEIteXjjAKBggqhkjOPQQDAgNJ
ADBGAiEAyRDo58EFaJp8z/JKkw27LRZKOMYpzFEF1rGIYaqI2G0CIQCa6gKE5GYX
G5aSe+USRLTELL0z9DJ8/G9b1WN3yiwreQ==
-----END CERTIFICATE-----
