Certificate:
    Data:
        Version: 1 (0x0)
        Serial Number:
            10:4f:0a:18:47:3a:f7:d9:05:83:53:d2:3a:c2:57:8e:ce:71:74:5e
        Signature Algorithm: ecdsa-with-SHA256
        Issuer: C=ES, ST=MA, L=Tres Cantos, O=eProsima, CN=eProsima Main Test CA/emailAddress=routertest@eprosima.com
        Validity
            Not Before: Jun  5 06:50:48 2023 GMT
            Not After : Jun  2 06:50:48 2033 GMT
        Subject: C=ES, ST=MA, O=eProsima, CN=WanTestRouterLocal1/emailAddress=routertest@eprosima.com
        Subject Public Key Info:
            Public Key Algorithm: id-ecPublicKey
                Public-Key: (256 bit)
                pub:
                    04:14:33:f7:ef:6b:03:4f:51:af:fd:fc:7c:e0:d4:
                    42:5c:b2:9f:4a:a9:50:13:5b:75:5d:eb:a9:be:22:
                    8e:4f:fa:09:0c:72:51:91:9d:ea:52:c3:7f:79:db:
                    a7:00:f9:22:e3:6b:85:81:32:b2:cf:15:e8:f6:f4:
                    d8:c6:a4:70:90
                ASN1 OID: prime256v1
                NIST CURVE: P-256
    Signature Algorithm: ecdsa-with-SHA256
    Signature Value:
        30:45:02:21:00:f8:f0:b2:1d:32:46:88:d5:a0:c1:b6:94:f3:
        3b:3e:90:25:43:61:4f:37:cc:18:eb:e1:eb:49:6e:96:8d:a7:
        82:02:20:47:29:d6:70:4d:08:72:83:10:11:54:91:8e:67:d4:
        12:61:b7:61:0c:0a:26:63:eb:00:71:00:b6:cf:be:b1:86
-----BEGIN CERTIFICATE-----
MIIB+jCCAaACFBBPChhHOvfZBYNT0jrCV47OcXReMAoGCCqGSM49BAMCMIGLMQsw
CQYDVQQGEwJFUzELMAkGA1UECAwCTUExFDASBgNVBAcMC1RyZXMgQ2FudG9zMREw
DwYDVQQKDAhlUHJvc2ltYTEeMBwGA1UEAwwVZVByb3NpbWEgTWFpbiBUZXN0IENB
MSYwJAYJKoZIhvcNAQkBFhdyb3V0ZXJ0ZXN0QGVwcm9zaW1hLmNvbTAeFw0yMzA2
MDUwNjUwNDhaFw0zMzA2MDIwNjUwNDhaMHMxCzAJBgNVBAYTAkVTMQswCQYDVQQI
DAJNQTERMA8GA1UECgwIZVByb3NpbWExHDAaBgNVBAMME1dhblRlc3RSb3V0ZXJM
b2NhbDExJjAkBgkqhkiG9w0BCQEWF3JvdXRlcnRlc3RAZXByb3NpbWEuY29tMFkw
EwYHKoZIzj0CAQYIKoZIzj0DAQcDQgAEFDP372sDT1Gv/fx84NRCXLKfSqlQE1t1
XeupviKOT/oJDHJRkZ3qUsN/edunAPki42uFgTKyzxXo9vTYxqRwkDAKBggqhkjO
PQQDAgNIADBFAiEA+PCyHTJGiNWgwbaU8zs+kCVDYU83zBjr4etJbpaNp4ICIEcp
1nBNCHKDEBFUkY5n1BJht2EMCiZj6wBxALbPvrGG
-----END CERTIFICATE-----
