Certificate:
    Data:
        Version: 1 (0x0)
        Serial Number:
            10:4f:0a:18:47:3a:f7:d9:05:83:53:d2:3a:c2:57:8e:ce:71:74:59
        Signature Algorithm: ecdsa-with-SHA256
        Issuer: C=ES, ST=MA, L=Tres Cantos, O=eProsima, CN=eProsima Main Test CA/emailAddress=routertest@eprosima.com
        Validity
            Not Before: Jun  5 06:49:30 2023 GMT
            Not After : Jun  2 06:49:30 2033 GMT
        Subject: C=ES, ST=MA, O=eProsima, CN=WanTestServer/emailAddress=routertest@eprosima.com
        Subject Public Key Info:
            Public Key Algorithm: id-ecPublicKey
                Public-Key: (256 bit)
                pub:
                    04:08:3f:cd:41:41:d0:8b:bb:06:3e:4b:2d:3e:0e:
                    7d:98:3d:10:71:af:58:87:c1:a3:86:0a:7c:31:12:
                    48:65:d9:93:95:6c:2d:8c:f2:98:52:a2:73:83:d9:
                    6e:5f:d6:a4:0c:9d:49:bf:09:ef:e2:8f:8a:93:d7:
                    06:40:73:ab:dd
                ASN1 OID: prime256v1
                NIST CURVE: P-256
    Signature Algorithm: ecdsa-with-SHA256
    Signature Value:
        30:45:02:21:00:ae:d9:73:d2:84:ee:ca:18:ed:a0:7b:70:35:
        77:1a:ee:42:f4:4d:ed:b2:40:2b:28:f7:9b:d5:47:97:c7:3e:
        57:02:20:7e:48:48:fe:d5:83:c3:9b:a8:84:bb:3a:1a:5a:9c:
        c0:cb:f7:0e:60:7f:25:f3:02:ea:f4:24:85:48:f3:d0:6e
-----BEGIN CERTIFICATE-----
MIIB9DCCAZoCFBBPChhHOvfZBYNT0jrCV47OcXRZMAoGCCqGSM49BAMCMIGLMQsw
CQYDVQQGEwJFUzELMAkGA1UECAwCTUExFDASBgNVBAcMC1RyZXMgQ2FudG9zMREw
DwYDVQQKDAhlUHJvc2ltYTEeMBwGA1UEAwwVZVByb3NpbWEgTWFpbiBUZXN0IENB
MSYwJAYJKoZIhvcNAQkBFhdyb3V0ZXJ0ZXN0QGVwcm9zaW1hLmNvbTAeFw0yMzA2
MDUwNjQ5MzBaFw0zMzA2MDIwNjQ5MzBaMG0xCzAJBgNVBAYTAkVTMQswCQYDVQQI
DAJNQTERMA8GA1UECgwIZVByb3NpbWExFjAUBgNVBAMMDVdhblRlc3RTZXJ2ZXIx
JjAkBgkqhkiG9w0BCQEWF3JvdXRlcnRlc3RAZXByb3NpbWEuY29tMFkwEwYHKoZI
zj0CAQYIKoZIzj0DAQcDQgAECD/NQUHQi7sGPkstPg59mD0Qca9Yh8Gjhgp8MRJI
ZdmTlWwtjPKYUqJzg9luX9akDJ1Jvwnv4o+Kk9cGQHOr3TAKBggqhkjOPQQDAgNI
ADBFAiEArtlz0oTuyhjtoHtwNXca7kL0Te2yQCso95vVR5fHPlcCIH5ISP7Vg8Ob
qIS7OhpanMDL9w5gfyXzAur0JIVI89Bu
-----END CERTIFICATE-----
