Certificate:
    Data:
        Version: 1 (0x0)
        Serial Number:
            10:4f:0a:18:47:3a:f7:d9:05:83:53:d2:3a:c2:57:8e:ce:71:74:58
        Signature Algorithm: ecdsa-with-SHA256
        Issuer: C=ES, ST=MA, L=Tres Cantos, O=eProsima, CN=eProsima Main Test CA/emailAddress=routertest@eprosima.com
        Validity
            Not Before: Jun  5 06:49:30 2023 GMT
            Not After : Jun  2 06:49:30 2033 GMT
        Subject: C=ES, ST=MA, O=eProsima, CN=WanTestRouterLocal1/emailAddress=routertest@eprosima.com
        Subject Public Key Info:
            Public Key Algorithm: id-ecPublicKey
                Public-Key: (256 bit)
                pub:
                    04:9b:77:be:c2:0f:58:de:9b:a3:5a:10:73:c7:86:
                    f3:cf:a5:32:f4:2d:7f:b0:59:89:33:5e:65:2b:ef:
                    c5:77:7f:93:87:3d:20:45:e4:1a:9d:d1:09:e0:4b:
                    82:e3:31:02:e1:1d:a3:42:c9:e6:68:27:82:0e:61:
                    93:73:b0:76:12
                ASN1 OID: prime256v1
                NIST CURVE: P-256
    Signature Algorithm: ecdsa-with-SHA256
    Signature Value:
        30:46:02:21:00:d7:f4:97:bb:dc:6e:39:d6:19:f6:bf:6f:b1:
        e1:21:89:c0:18:4a:dd:d5:97:bf:92:a2:4f:d8:42:c6:82:5f:
        48:02:21:00:99:d0:40:f0:9f:aa:9d:b2:a0:83:df:a8:29:42:
        58:4a:d0:ad:28:02:6f:9e:73:66:fa:a3:ee:59:ef:0f:23:fe
-----BEGIN CERTIFICATE-----
MIIB+zCCAaACFBBPChhHOvfZBYNT0jrCV47OcXRYMAoGCCqGSM49BAMCMIGLMQsw
CQYDVQQGEwJFUzELMAkGA1UECAwCTUExFDASBgNVBAcMC1RyZXMgQ2FudG9zMREw
DwYDVQQKDAhlUHJvc2ltYTEeMBwGA1UEAwwVZVByb3NpbWEgTWFpbiBUZXN0IENB
MSYwJAYJKoZIhvcNAQkBFhdyb3V0ZXJ0ZXN0QGVwcm9zaW1hLmNvbTAeFw0yMzA2
MDUwNjQ5MzBaFw0zMzA2MDIwNjQ5MzBaMHMxCzAJBgNVBAYTAkVTMQswCQYDVQQI
DAJNQTERMA8GA1UECgwIZVByb3NpbWExHDAaBgNVBAMME1dhblRlc3RSb3V0ZXJM
b2NhbDExJjAkBgkqhkiG9w0BCQEWF3JvdXRlcnRlc3RAZXByb3NpbWEuY29tMFkw
EwYHKoZIzj0CAQYIKoZIzj0DAQcDQgAEm3e+wg9Y3pujWhBzx4bzz6Uy9C1/sFmJ
M15lK+/Fd3+Thz0gReQandEJ4EuC4zEC4R2jQsnmaCeCDmGTc7B2EjAKBggqhkjO
PQQDAgNJADBGAiEA1/SXu9xuOdYZ9r9vseEhicAYSt3Vl7+Sok/YQsaCX0gCIQCZ
0EDwn6qdsqCD36gpQlhK0K0oAm+ec2b6o+5Z7w8j/g==
-----END CERTIFICATE-----
