Certificate:
    Data:
        Version: 1 (0x0)
        Serial Number:
            10:4f:0a:18:47:3a:f7:d9:05:83:53:d2:3a:c2:57:8e:ce:71:74:56
        Signature Algorithm: ecdsa-with-SHA256
        Issuer: C=ES, ST=MA, L=Tres Cantos, O=eProsima, CN=eProsima Main Test CA/emailAddress=routertest@eprosima.com
        Validity
            Not Before: Jun  5 06:49:30 2023 GMT
            Not After : Jun  2 06:49:30 2033 GMT
        Subject: C=ES, ST=MA, O=eProsima, CN=WanTestLocal1/emailAddress=routertest@eprosima.com
        Subject Public Key Info:
            Public Key Algorithm: id-ecPublicKey
                Public-Key: (256 bit)
                pub:
                    04:38:34:de:ed:f3:f2:a1:6f:ec:7f:9c:79:e7:4a:
                    d0:e7:1b:74:ce:69:8e:2d:c8:8e:bd:02:88:07:92:
                    b8:b2:f7:04:96:45:55:0a:c4:5b:ed:b6:15:76:b6:
                    43:de:a3:12:31:17:2a:2b:aa:e9:88:8b:59:2f:51:
                    cb:34:7c:4d:c5
                ASN1 OID: prime256v1
                NIST CURVE: P-256
    Signature Algorithm: ecdsa-with-SHA256
    Signature Value:
        30:45:02:20:05:f0:33:cc:6e:f1:94:6a:b1:f2:67:d0:44:1a:
        6c:5d:c9:15:3c:dd:87:cf:31:ca:f5:7c:15:71:b7:4f:46:89:
        02:21:00:b3:2f:b4:af:1c:dd:aa:3a:e2:97:f5:38:7c:9c:85:
        b7:8d:14:5b:ec:a5:dd:70:7a:86:7b:7f:32:45:12:d6:ec
-----BEGIN CERTIFICATE-----
MIIB9DCCAZoCFBBPChhHOvfZBYNT0jrCV47OcXRWMAoGCCqGSM49BAMCMIGLMQsw
CQYDVQQGEwJFUzELMAkGA1UECAwCTUExFDASBgNVBAcMC1RyZXMgQ2FudG9zMREw
DwYDVQQKDAhlUHJvc2ltYTEeMBwGA1UEAwwVZVByb3NpbWEgTWFpbiBUZXN0IENB
MSYwJAYJKoZIhvcNAQkBFhdyb3V0ZXJ0ZXN0QGVwcm9zaW1hLmNvbTAeFw0yMzA2
MDUwNjQ5MzBaFw0zMzA2MDIwNjQ5MzBaMG0xCzAJBgNVBAYTAkVTMQswCQYDVQQI
DAJNQTERMA8GA1UECgwIZVByb3NpbWExFjAUBgNVBAMMDVdhblRlc3RMb2NhbDEx
JjAkBgkqhkiG9w0BCQEWF3JvdXRlcnRlc3RAZXByb3NpbWEuY29tMFkwEwYHKoZI
zj0CAQYIKoZIzj0DAQcDQgAEODTe7fPyoW/sf5x550rQ5xt0zmmOLciOvQKIB5K4
svcElkVVCsRb7bYVdrZD3qMSMRcqK6rpiItZL1HLNHxNxTAKBggqhkjOPQQDAgNI
ADBFAiAF8DPMbvGUarHyZ9BEGmxdyRU83YfPMcr1fBVxt09GiQIhALMvtK8c3ao6
4pf1OHychbeNFFvspd1weoZ7fzJFEtbs
-----END CERTIFICATE-----
