Certificate:
    Data:
        Version: 1 (0x0)
        Serial Number:
            10:4f:0a:18:47:3a:f7:d9:05:83:53:d2:3a:c2:57:8e:ce:71:74:55
        Signature Algorithm: ecdsa-with-SHA256
        Issuer: C=ES, ST=MA, L=Tres Cantos, O=eProsima, CN=eProsima Main Test CA/emailAddress=routertest@eprosima.com
        Validity
            Not Before: Jun  5 06:49:30 2023 GMT
            Not After : Jun  2 06:49:30 2033 GMT
        Subject: C=ES, ST=MA, O=eProsima, CN=WanTestLocal0/emailAddress=routertest@eprosima.com
        Subject Public Key Info:
            Public Key Algorithm: id-ecPublicKey
                Public-Key: (256 bit)
                pub:
                    04:f4:96:9a:be:dc:74:ef:b8:2f:35:83:51:bb:cf:
                    c3:bc:54:19:f6:cb:68:73:b5:7e:a5:66:15:40:d3:
                    cb:13:16:c7:02:5a:fa:cb:07:d9:85:86:7b:28:80:
                    31:fb:a9:6c:23:d7:5e:d0:ac:93:31:fa:c4:ea:a4:
                    f8:77:48:c4:ec
                ASN1 OID: prime256v1
                NIST CURVE: P-256
    Signature Algorithm: ecdsa-with-SHA256
    Signature Value:
        30:46:02:21:00:9c:7d:dc:39:8f:87:2f:66:58:52:74:dd:e5:
        9b:a1:73:09:bb:66:d6:df:2b:b6:66:14:df:96:62:e8:47:a7:
        71:02:21:00:83:6d:69:d0:56:b7:a2:25:78:62:f2:3b:49:5b:
        c5:cf:a1:10:e0:76:1c:50:40:83:cb:47:94:51:76:2f:ac:0d
-----BEGIN CERTIFICATE-----
MIIB9TCCAZoCFBBPChhHOvfZBYNT0jrCV47OcXRVMAoGCCqGSM49BAMCMIGLMQsw
CQYDVQQGEwJFUzELMAkGA1UECAwCTUExFDASBgNVBAcMC1RyZXMgQ2FudG9zMREw
DwYDVQQKDAhlUHJvc2ltYTEeMBwGA1UEAwwVZVByb3NpbWEgTWFpbiBUZXN0IENB
MSYwJAYJKoZIhvcNAQkBFhdyb3V0ZXJ0ZXN0QGVwcm9zaW1hLmNvbTAeFw0yMzA2
MDUwNjQ5MzBaFw0zMzA2MDIwNjQ5MzBaMG0xCzAJBgNVBAYTAkVTMQswCQYDVQQI
DAJNQTERMA8GA1UECgwIZVByb3NpbWExFjAUBgNVBAMMDVdhblRlc3RMb2NhbDAx
JjAkBgkqhkiG9w0BCQEWF3JvdXRlcnRlc3RAZXByb3NpbWEuY29tMFkwEwYHKoZI
zj0CAQYIKoZIzj0DAQcDQgAE9Jaavtx077gvNYNRu8/DvFQZ9stoc7V+pWYVQNPL
ExbHAlr6ywfZhYZ7KIAx+6lsI9de0KyTMfrE6qT4d0jE7DAKBggqhkjOPQQDAgNJ
ADBGAiEAnH3cOY+HL2ZYUnTd5Zuhcwm7ZtbfK7ZmFN+WYuhHp3ECIQCDbWnQVrei
JXhi8jtJW8XPoRDgdhxQQIPLR5RRdi+sDQ==
-----END CERTIFICATE-----
