Certificate:
    Data:
        Version: 1 (0x0)
        Serial Number:
            10:4f:0a:18:47:3a:f7:d9:05:83:53:d2:3a:c2:57:8e:ce:71:74:65
        Signature Algorithm: ecdsa-with-SHA256
        Issuer: C=ES, ST=MA, L=Tres Cantos, O=eProsima, CN=eProsima Main Test CA/emailAddress=routertest@eprosima.com
        Validity
            Not Before: Jun  5 06:51:04 2023 GMT
            Not After : Jun  2 06:51:04 2033 GMT
        Subject: C=ES, ST=MA, O=eProsima, CN=WanTestServer/emailAddress=routertest@eprosima.com
        Subject Public Key Info:
            Public Key Algorithm: id-ecPublicKey
                Public-Key: (256 bit)
                pub:
                    04:30:e2:54:14:eb:07:89:73:f7:72:ea:60:66:8a:
                    c9:62:7c:32:3b:78:29:64:ca:e6:da:7f:09:25:df:
                    39:17:b5:0e:6c:da:2e:b8:17:46:07:a1:99:df:68:
                    6b:b5:41:41:07:53:6c:4c:d1:95:0e:84:4c:de:b2:
                    9c:1c:28:57:4c
                ASN1 OID: prime256v1
                NIST CURVE: P-256
    Signature Algorithm: ecdsa-with-SHA256
    Signature Value:
        30:45:02:20:7a:8c:af:ca:b7:0c:8b:88:49:ed:92:a7:60:cc:
        fa:31:6c:fd:6c:66:1d:55:4a:00:10:ff:05:d0:3d:a7:0c:b3:
        02:21:00:ba:17:1d:bd:84:01:0a:09:23:23:05:19:41:14:c6:
        df:b7:fe:6c:3b:b9:17:23:7a:84:b6:b7:f9:58:ff:f9:f4
-----BEGIN CERTIFICATE-----
MIIB9DCCAZoCFBBPChhHOvfZBYNT0jrCV47OcXRlMAoGCCqGSM49BAMCMIGLMQsw
CQYDVQQGEwJFUzELMAkGA1UECAwCTUExFDASBgNVBAcMC1RyZXMgQ2FudG9zMREw
DwYDVQQKDAhlUHJvc2ltYTEeMBwGA1UEAwwVZVByb3NpbWEgTWFpbiBUZXN0IENB
MSYwJAYJKoZIhvcNAQkBFhdyb3V0ZXJ0ZXN0QGVwcm9zaW1hLmNvbTAeFw0yMzA2
MDUwNjUxMDRaFw0zMzA2MDIwNjUxMDRaMG0xCzAJBgNVBAYTAkVTMQswCQYDVQQI
DAJNQTERMA8GA1UECgwIZVByb3NpbWExFjAUBgNVBAMMDVdhblRlc3RTZXJ2ZXIx
JjAkBgkqhkiG9w0BCQEWF3JvdXRlcnRlc3RAZXByb3NpbWEuY29tMFkwEwYHKoZI
zj0CAQYIKoZIzj0DAQcDQgAEMOJUFOsHiXP3cupgZorJYnwyO3gpZMrm2n8JJd85
F7UObNouuBdGB6GZ32hrtUFBB1NsTNGVDoRM3rKcHChXTDAKBggqhkjOPQQDAgNI
ADBFAiB6jK/KtwyLiEntkqdgzPoxbP1sZh1VSgAQ/wXQPacMswIhALoXHb2EAQoJ
IyMFGUEUxt+3/mw7uRcjeoS2t/lY//n0
-----END CERTIFICATE-----
