Certificate:
    Data:
        Version: 1 (0x0)
        Serial Number:
            10:4f:0a:18:47:3a:f7:d9:05:83:53:d2:3a:c2:57:8e:ce:71:74:5a
        Signature Algorithm: ecdsa-with-SHA256
        Issuer: C=ES, ST=MA, L=Tres Cantos, O=eProsima, CN=eProsima Main Test CA/emailAddress=routertest@eprosima.com
        Validity
            Not Before: Jun  5 06:49:30 2023 GMT
            Not After : Jun  2 06:49:30 2033 GMT
        Subject: C=ES, ST=MA, O=eProsima, CN=WanTestClient/emailAddress=routertest@eprosima.com
        Subject Public Key Info:
            Public Key Algorithm: id-ecPublicKey
                Public-Key: (256 bit)
                pub:
                    04:04:2b:b8:19:5d:3e:ef:3e:4a:df:a2:b1:4b:b0:
                    9b:ea:75:0e:14:8b:23:bd:9f:0a:23:38:d9:d2:55:
                    5f:89:89:48:f7:2c:d0:b8:ea:c5:ef:a0:54:b1:e6:
                    60:c5:01:2d:fd:cc:ef:d8:91:bd:62:af:e5:d7:59:
                    e3:0d:ca:fe:62
                ASN1 OID: prime256v1
                NIST CURVE: P-256
    Signature Algorithm: ecdsa-with-SHA256
    Signature Value:
        30:46:02:21:00:f9:36:ff:f5:c4:fe:33:65:1d:cd:db:08:4f:
        0d:a2:12:f7:5e:a7:b2:71:ce:06:7d:77:00:76:90:c9:2c:05:
        49:02:21:00:bd:2f:2f:f3:de:6b:a8:49:3a:b7:b9:18:6a:b2:
        35:d3:89:54:83:7e:be:0d:84:97:9e:90:9b:6c:6d:33:0a:f0
-----BEGIN CERTIFICATE-----
MIIB9TCCAZoCFBBPChhHOvfZBYNT0jrCV47OcXRaMAoGCCqGSM49BAMCMIGLMQsw
CQYDVQQGEwJFUzELMAkGA1UECAwCTUExFDASBgNVBAcMC1RyZXMgQ2FudG9zMREw
DwYDVQQKDAhlUHJvc2ltYTEeMBwGA1UEAwwVZVByb3NpbWEgTWFpbiBUZXN0IENB
MSYwJAYJKoZIhvcNAQkBFhdyb3V0ZXJ0ZXN0QGVwcm9zaW1hLmNvbTAeFw0yMzA2
MDUwNjQ5MzBaFw0zMzA2MDIwNjQ5MzBaMG0xCzAJBgNVBAYTAkVTMQswCQYDVQQI
DAJNQTERMA8GA1UECgwIZVByb3NpbWExFjAUBgNVBAMMDVdhblRlc3RDbGllbnQx
JjAkBgkqhkiG9w0BCQEWF3JvdXRlcnRlc3RAZXByb3NpbWEuY29tMFkwEwYHKoZI
zj0CAQYIKoZIzj0DAQcDQgAEBCu4GV0+7z5K36KxS7Cb6nUOFIsjvZ8KIzjZ0lVf
iYlI9yzQuOrF76BUseZgxQEt/czv2JG9Yq/l11njDcr+YjAKBggqhkjOPQQDAgNJ
ADBGAiEA+Tb/9cT+M2UdzdsITw2iEvdep7JxzgZ9dwB2kMksBUkCIQC9Ly/z3muo
STq3uRhqsjXTiVSDfr4NhJeekJtsbTMK8A==
-----END CERTIFICATE-----
