Certificate:
    Data:
        Version: 1 (0x0)
        Serial Number:
            10:4f:0a:18:47:3a:f7:d9:05:83:53:d2:3a:c2:57:8e:ce:71:74:5c
        Signature Algorithm: ecdsa-with-SHA256
        Issuer: C=ES, ST=MA, L=Tres Cantos, O=eProsima, CN=eProsima Main Test CA/emailAddress=routertest@eprosima.com
        Validity
            Not Before: Jun  5 06:50:48 2023 GMT
            Not After : Jun  2 06:50:48 2033 GMT
        Subject: C=ES, ST=MA, O=eProsima, CN=WanTestLocal1/emailAddress=routertest@eprosima.com
        Subject Public Key Info:
            Public Key Algorithm: id-ecPublicKey
                Public-Key: (256 bit)
                pub:
                    04:2b:f1:c9:97:45:1e:66:a5:14:c5:16:90:6e:30:
                    e5:0b:3f:fe:0c:9d:12:4e:6c:92:32:bb:09:e7:6d:
                    6a:6a:a3:86:da:82:65:66:df:10:46:35:a1:04:c1:
                    02:97:ca:f1:13:44:96:d6:9f:f7:6c:9d:96:10:b4:
                    8f:66:39:61:8c
                ASN1 OID: prime256v1
                NIST CURVE: P-256
    Signature Algorithm: ecdsa-with-SHA256
    Signature Value:
        30:45:02:21:00:cb:f5:a0:9b:9d:05:9e:f4:26:f2:e8:e6:2f:
        e8:6c:11:66:6a:cf:f7:e9:bd:85:0f:90:be:6a:bb:17:10:bf:
        f8:02:20:63:54:7f:b9:be:84:93:94:53:51:a3:9b:dd:ad:38:
        ff:3a:9e:3d:ab:57:a0:31:6f:22:83:1c:70:14:7a:dd:85
-----BEGIN CERTIFICATE-----
MIIB9DCCAZoCFBBPChhHOvfZBYNT0jrCV47OcXRcMAoGCCqGSM49BAMCMIGLMQsw
CQYDVQQGEwJFUzELMAkGA1UECAwCTUExFDASBgNVBAcMC1RyZXMgQ2FudG9zMREw
DwYDVQQKDAhlUHJvc2ltYTEeMBwGA1UEAwwVZVByb3NpbWEgTWFpbiBUZXN0IENB
MSYwJAYJKoZIhvcNAQkBFhdyb3V0ZXJ0ZXN0QGVwcm9zaW1hLmNvbTAeFw0yMzA2
MDUwNjUwNDhaFw0zMzA2MDIwNjUwNDhaMG0xCzAJBgNVBAYTAkVTMQswCQYDVQQI
DAJNQTERMA8GA1UECgwIZVByb3NpbWExFjAUBgNVBAMMDVdhblRlc3RMb2NhbDEx
JjAkBgkqhkiG9w0BCQEWF3JvdXRlcnRlc3RAZXByb3NpbWEuY29tMFkwEwYHKoZI
zj0CAQYIKoZIzj0DAQcDQgAEK/HJl0UeZqUUxRaQbjDlCz/+DJ0STmySMrsJ521q
aqOG2oJlZt8QRjWhBMECl8rxE0SW1p/3bJ2WELSPZjlhjDAKBggqhkjOPQQDAgNI
ADBFAiEAy/Wgm50FnvQm8ujmL+hsEWZqz/fpvYUPkL5quxcQv/gCIGNUf7m+hJOU
U1Gjm92tOP86nj2rV6AxbyKDHHAUet2F
-----END CERTIFICATE-----
