Certificate:
    Data:
        Version: 1 (0x0)
        Serial Number:
            10:4f:0a:18:47:3a:f7:d9:05:83:53:d2:3a:c2:57:8e:ce:71:74:60
        Signature Algorithm: ecdsa-with-SHA256
        Issuer: C=ES, ST=MA, L=Tres Cantos, O=eProsima, CN=eProsima Main Test CA/emailAddress=routertest@eprosima.com
        Validity
            Not Before: Jun  5 06:50:49 2023 GMT
            Not After : Jun  2 06:50:49 2033 GMT
        Subject: C=ES, ST=MA, O=eProsima, CN=WanTestClient/emailAddress=routertest@eprosima.com
        Subject Public Key Info:
            Public Key Algorithm: id-ecPublicKey
                Public-Key: (256 bit)
                pub:
                    04:8d:50:24:22:1b:76:b3:6d:fa:77:bf:80:ad:07:
                    94:8f:e4:97:fd:db:2a:f5:a2:5b:aa:63:7d:a9:89:
                    72:10:eb:71:3d:25:cf:a5:0b:2b:98:39:e1:be:11:
                    23:93:d7:51:30:f4:91:2f:c1:48:fc:5b:7c:0a:08:
                    08:83:ef:04:11
                ASN1 OID: prime256v1
                NIST CURVE: P-256
    Signature Algorithm: ecdsa-with-SHA256
    Signature Value:
        30:45:02:21:00:89:d8:2c:79:80:65:d4:71:3d:29:b9:f9:d7:
        a0:7f:9f:c5:c5:34:40:b7:33:dd:53:af:c0:15:cd:6a:3d:e9:
        86:02:20:43:91:f4:55:dd:e0:c5:da:25:23:d5:4e:4a:56:cc:
        c7:a0:d2:d9:ce:08:bb:84:33:d9:dd:69:9a:ec:9d:cf:61
-----BEGIN CERTIFICATE-----
MIIB9DCCAZoCFBBPChhHOvfZBYNT0jrCV47OcXRgMAoGCCqGSM49BAMCMIGLMQsw
CQYDVQQGEwJFUzELMAkGA1UECAwCTUExFDASBgNVBAcMC1RyZXMgQ2FudG9zMREw
DwYDVQQKDAhlUHJvc2ltYTEeMBwGA1UEAwwVZVByb3NpbWEgTWFpbiBUZXN0IENB
MSYwJAYJKoZIhvcNAQkBFhdyb3V0ZXJ0ZXN0QGVwcm9zaW1hLmNvbTAeFw0yMzA2
MDUwNjUwNDlaFw0zMzA2MDIwNjUwNDlaMG0xCzAJBgNVBAYTAkVTMQswCQYDVQQI
DAJNQTERMA8GA1UECgwIZVByb3NpbWExFjAUBgNVBAMMDVdhblRlc3RDbGllbnQx
JjAkBgkqhkiG9w0BCQEWF3JvdXRlcnRlc3RAZXByb3NpbWEuY29tMFkwEwYHKoZI
zj0CAQYIKoZIzj0DAQcDQgAEjVAkIht2s236d7+ArQeUj+SX/dsq9aJbqmN9qYly
EOtxPSXPpQsrmDnhvhEjk9dRMPSRL8FI/Ft8CggIg+8EETAKBggqhkjOPQQDAgNI
ADBFAiEAidgseYBl1HE9Kbn516B/n8XFNEC3M91Tr8AVzWo96YYCIEOR9FXd4MXa
JSPVTkpWzMeg0tnOCLuEM9ndaZrsnc9h
-----END CERTIFICATE-----
