Certificate:
    Data:
        Version: 1 (0x0)
        Serial Number:
            10:4f:0a:18:47:3a:f7:d9:05:83:53:d2:3a:c2:57:8e:ce:71:74:5d
        Signature Algorithm: ecdsa-with-SHA256
        Issuer: C=ES, ST=MA, L=Tres Cantos, O=eProsima, CN=eProsima Main Test CA/emailAddress=routertest@eprosima.com
        Validity
            Not Before: Jun  5 06:50:48 2023 GMT
            Not After : Jun  2 06:50:48 2033 GMT
        Subject: C=ES, ST=MA, O=eProsima, CN=WanTestRouterLocal0/emailAddress=routertest@eprosima.com
        Subject Public Key Info:
            Public Key Algorithm: id-ecPublicKey
                Public-Key: (256 bit)
                pub:
                    04:3c:c4:2a:2f:1e:e3:f2:c1:97:82:9d:6e:3e:80:
                    31:aa:83:5b:a0:78:1e:e5:25:b0:9b:aa:77:2a:55:
                    cb:eb:96:43:49:45:2e:12:34:8c:52:0a:2a:1b:7c:
                    da:1e:07:af:13:e1:d7:45:1f:9c:d0:0e:05:7d:8c:
                    6d:9a:08:ec:f6
                ASN1 OID: prime256v1
                NIST CURVE: P-256
    Signature Algorithm: ecdsa-with-SHA256
    Signature Value:
        30:45:02:21:00:d4:bf:f6:da:c4:73:ba:de:29:9a:a2:de:b6:
        b1:ac:a4:5f:f4:d9:14:8e:ec:a0:55:86:e6:62:64:08:3a:59:
        63:02:20:53:2c:d1:7d:fe:1f:72:c7:6d:aa:92:aa:be:54:36:
        80:f9:53:1c:b0:b4:23:56:74:5d:ec:40:70:9b:44:b3:de
-----BEGIN CERTIFICATE-----
MIIB+jCCAaACFBBPChhHOvfZBYNT0jrCV47OcXRdMAoGCCqGSM49BAMCMIGLMQsw
CQYDVQQGEwJFUzELMAkGA1UECAwCTUExFDASBgNVBAcMC1RyZXMgQ2FudG9zMREw
DwYDVQQKDAhlUHJvc2ltYTEeMBwGA1UEAwwVZVByb3NpbWEgTWFpbiBUZXN0IENB
MSYwJAYJKoZIhvcNAQkBFhdyb3V0ZXJ0ZXN0QGVwcm9zaW1hLmNvbTAeFw0yMzA2
MDUwNjUwNDhaFw0zMzA2MDIwNjUwNDhaMHMxCzAJBgNVBAYTAkVTMQswCQYDVQQI
DAJNQTERMA8GA1UECgwIZVByb3NpbWExHDAaBgNVBAMME1dhblRlc3RSb3V0ZXJM
b2NhbDAxJjAkBgkqhkiG9w0BCQEWF3JvdXRlcnRlc3RAZXByb3NpbWEuY29tMFkw
EwYHKoZIzj0CAQYIKoZIzj0DAQcDQgAEPMQqLx7j8sGXgp1uPoAxqoNboHge5SWw
m6p3KlXL65ZDSUUuEjSMUgoqG3zaHgevE+HXRR+c0A4FfYxtmgjs9jAKBggqhkjO
PQQDAgNIADBFAiEA1L/22sRzut4pmqLetrGspF/02RSO7KBVhuZiZAg6WWMCIFMs
0X3+H3LHbaqSqr5UNoD5UxywtCNWdF3sQHCbRLPe
-----END CERTIFICATE-----
