Certificate:
    Data:
        Version: 1 (0x0)
        Serial Number:
            10:4f:0a:18:47:3a:f7:d9:05:83:53:d2:3a:c2:57:8e:ce:71:74:5f
        Signature Algorithm: ecdsa-with-SHA256
        Issuer: C=ES, ST=MA, L=Tres Cantos, O=eProsima, CN=eProsima Main Test CA/emailAddress=routertest@eprosima.com
        Validity
            Not Before: Jun  5 06:50:48 2023 GMT
            Not After : Jun  2 06:50:48 2033 GMT
        Subject: C=ES, ST=MA, O=eProsima, CN=WanTestServer/emailAddress=routertest@eprosima.com
        Subject Public Key Info:
            Public Key Algorithm: id-ecPublicKey
                Public-Key: (256 bit)
                pub:
                    04:43:93:20:13:9e:06:01:ed:6d:6b:e2:c8:00:80:
                    8e:2d:48:c7:7a:7e:1e:fd:12:a6:2a:cc:29:4d:54:
                    31:db:b8:08:9d:11:db:f2:13:2d:1d:da:ee:12:c6:
                    80:5d:40:ac:48:fe:39:58:1f:b9:08:48:28:e2:61:
                    cd:18:44:fe:5c
                ASN1 OID: prime256v1
                NIST CURVE: P-256
    Signature Algorithm: ecdsa-with-SHA256
    Signature Value:
        30:45:02:21:00:9c:af:83:4a:c8:f4:08:77:33:8d:f3:be:44:
        13:18:e0:5d:9c:8c:2c:67:68:2c:04:25:89:4b:f5:1b:37:bb:
        be:02:20:36:88:0f:7c:74:ad:78:16:eb:00:49:cb:5c:64:55:
        9d:d3:fa:de:41:75:2d:90:d9:7e:df:cf:3b:f8:91:9e:36
-----BEGIN CERTIFICATE-----
MIIB9DCCAZoCFBBPChhHOvfZBYNT0jrCV47OcXRfMAoGCCqGSM49BAMCMIGLMQsw
CQYDVQQGEwJFUzELMAkGA1UECAwCTUExFDASBgNVBAcMC1RyZXMgQ2FudG9zMREw
DwYDVQQKDAhlUHJvc2ltYTEeMBwGA1UEAwwVZVByb3NpbWEgTWFpbiBUZXN0IENB
MSYwJAYJKoZIhvcNAQkBFhdyb3V0ZXJ0ZXN0QGVwcm9zaW1hLmNvbTAeFw0yMzA2
MDUwNjUwNDhaFw0zMzA2MDIwNjUwNDhaMG0xCzAJBgNVBAYTAkVTMQswCQYDVQQI
DAJNQTERMA8GA1UECgwIZVByb3NpbWExFjAUBgNVBAMMDVdhblRlc3RTZXJ2ZXIx
JjAkBgkqhkiG9w0BCQEWF3JvdXRlcnRlc3RAZXByb3NpbWEuY29tMFkwEwYHKoZI
zj0CAQYIKoZIzj0DAQcDQgAEQ5MgE54GAe1ta+LIAICOLUjHen4e/RKmKswpTVQx
27gInRHb8hMtHdruEsaAXUCsSP45WB+5CEgo4mHNGET+XDAKBggqhkjOPQQDAgNI
ADBFAiEAnK+DSsj0CHczjfO+RBMY4F2cjCxnaCwEJYlL9Rs3u74CIDaID3x0rXgW
6wBJy1xkVZ3T+t5BdS2Q2X7fzzv4kZ42
-----END CERTIFICATE-----
