Certificate:
    Data:
        Version: 1 (0x0)
        Serial Number:
            10:4f:0a:18:47:3a:f7:d9:05:83:53:d2:3a:c2:57:8e:ce:71:74:56
        Signature Algorithm: ecdsa-with-SHA256
        Issuer: C=ES, ST=MA, L=Tres Cantos, O=eProsima, CN=eProsima Main Test CA/emailAddress=routertest@eprosima.com
        Validity
            Not Before: Jun  2 09:58:20 2023 GMT
            Not After : May 30 09:58:20 2033 GMT
        Subject: C=ES, ST=MA, O=eProsima, CN=BackdoorTestRouter/emailAddress=routertest@eprosima.com
        Subject Public Key Info:
            Public Key Algorithm: id-ecPublicKey
                Public-Key: (256 bit)
                pub:
                    04:d5:f6:1e:f1:21:5e:78:fe:23:38:08:ea:a1:44:
                    d1:f0:ab:a1:66:3e:7a:b4:ca:e9:25:a2:b0:19:d3:
                    2c:20:c3:a0:f5:42:d2:4d:57:a8:b5:72:42:4b:67:
                    4b:6c:1d:9f:3c:31:58:67:4e:2d:00:39:9a:25:4c:
                    b2:76:45:c5:da
                ASN1 OID: prime256v1
                NIST CURVE: P-256
    Signature Algorithm: ecdsa-with-SHA256
    Signature Value:
        30:45:02:20:69:28:11:bb:ae:6e:57:d8:12:59:6e:95:de:8b:
        44:c7:c2:81:f9:23:12:72:e7:4a:84:19:41:e0:05:9b:b9:cc:
        02:21:00:d5:24:80:9c:95:18:58:60:21:d7:3b:26:b0:5b:c1:
        7d:c1:60:95:06:c9:89:94:a6:b9:88:56:7e:e8:91:5e:a4
-----BEGIN CERTIFICATE-----
MIIB+TCCAZ8CFBBPChhHOvfZBYNT0jrCV47OcXRWMAoGCCqGSM49BAMCMIGLMQsw
CQYDVQQGEwJFUzELMAkGA1UECAwCTUExFDASBgNVBAcMC1RyZXMgQ2FudG9zMREw
DwYDVQQKDAhlUHJvc2ltYTEeMBwGA1UEAwwVZVByb3NpbWEgTWFpbiBUZXN0IENB
MSYwJAYJKoZIhvcNAQkBFhdyb3V0ZXJ0ZXN0QGVwcm9zaW1hLmNvbTAeFw0yMzA2
MDIwOTU4MjBaFw0zMzA1MzAwOTU4MjBaMHIxCzAJBgNVBAYTAkVTMQswCQYDVQQI
DAJNQTERMA8GA1UECgwIZVByb3NpbWExGzAZBgNVBAMMEkJhY2tkb29yVGVzdFJv
dXRlcjEmMCQGCSqGSIb3DQEJARYXcm91dGVydGVzdEBlcHJvc2ltYS5jb20wWTAT
BgcqhkjOPQIBBggqhkjOPQMBBwNCAATV9h7xIV54/iM4COqhRNHwq6FmPnq0yukl
orAZ0ywgw6D1QtJNV6i1ckJLZ0tsHZ88MVhnTi0AOZolTLJ2RcXaMAoGCCqGSM49
BAMCA0gAMEUCIGkoEbuublfYElluld6LRMfCgfkjEnLnSoQZQeAFm7nMAiEA1SSA
nJUYWGAh1zsmsFvBfcFglQbJiZSmuYhWfuiRXqQ=
-----END CERTIFICATE-----
