Certificate:
    Data:
        Version: 1 (0x0)
        Serial Number:
            10:4f:0a:18:47:3a:f7:d9:05:83:53:d2:3a:c2:57:8e:ce:71:74:63
        Signature Algorithm: ecdsa-with-SHA256
        Issuer: C=ES, ST=MA, L=Tres Cantos, O=eProsima, CN=eProsima Main Test CA/emailAddress=routertest@eprosima.com
        Validity
            Not Before: Jun  5 06:51:03 2023 GMT
            Not After : Jun  2 06:51:03 2033 GMT
        Subject: C=ES, ST=MA, O=eProsima, CN=WanTestRouterLocal0/emailAddress=routertest@eprosima.com
        Subject Public Key Info:
            Public Key Algorithm: id-ecPublicKey
                Public-Key: (256 bit)
                pub:
                    04:6b:bd:ed:7e:1c:e8:f9:57:6c:c6:c1:54:80:a8:
                    0b:ab:be:17:d4:c6:f6:bb:06:d4:99:66:3b:11:f8:
                    f5:ee:e9:c7:9f:56:57:b6:11:9c:07:55:76:d3:32:
                    8d:f2:a3:fa:a7:86:3b:ec:48:9c:25:f6:72:72:02:
                    11:1f:f8:8d:d3
                ASN1 OID: prime256v1
                NIST CURVE: P-256
    Signature Algorithm: ecdsa-with-SHA256
    Signature Value:
        30:45:02:20:7d:66:83:79:60:7f:2e:3c:93:8e:46:ce:97:11:
        1b:be:e0:9f:25:44:dc:cf:d6:87:09:d7:8c:f2:a1:02:04:4b:
        02:21:00:87:01:67:c9:1b:6a:13:66:d0:4c:8a:b2:d0:30:e1:
        1c:0a:fe:89:fc:ff:79:99:e5:ed:19:c6:83:da:21:fd:23
-----BEGIN CERTIFICATE-----
MIIB+jCCAaACFBBPChhHOvfZBYNT0jrCV47OcXRjMAoGCCqGSM49BAMCMIGLMQsw
CQYDVQQGEwJFUzELMAkGA1UECAwCTUExFDASBgNVBAcMC1RyZXMgQ2FudG9zMREw
DwYDVQQKDAhlUHJvc2ltYTEeMBwGA1UEAwwVZVByb3NpbWEgTWFpbiBUZXN0IENB
MSYwJAYJKoZIhvcNAQkBFhdyb3V0ZXJ0ZXN0QGVwcm9zaW1hLmNvbTAeFw0yMzA2
MDUwNjUxMDNaFw0zMzA2MDIwNjUxMDNaMHMxCzAJBgNVBAYTAkVTMQswCQYDVQQI
DAJNQTERMA8GA1UECgwIZVByb3NpbWExHDAaBgNVBAMME1dhblRlc3RSb3V0ZXJM
b2NhbDAxJjAkBgkqhkiG9w0BCQEWF3JvdXRlcnRlc3RAZXByb3NpbWEuY29tMFkw
EwYHKoZIzj0CAQYIKoZIzj0DAQcDQgAEa73tfhzo+VdsxsFUgKgLq74X1Mb2uwbU
mWY7Efj17unHn1ZXthGcB1V20zKN8qP6p4Y77EicJfZycgIRH/iN0zAKBggqhkjO
PQQDAgNIADBFAiB9ZoN5YH8uPJOORs6XERu+4J8lRNzP1ocJ14zyoQIESwIhAIcB
Z8kbahNm0EyKstAw4RwK/on8/3mZ5e0ZxoPaIf0j
-----END CERTIFICATE-----
