Certificate:
    Data:
        Version: 1 (0x0)
        Serial Number:
            10:4f:0a:18:47:3a:f7:d9:05:83:53:d2:3a:c2:57:8e:ce:71:74:54
        Signature Algorithm: ecdsa-with-SHA256
        Issuer: C=ES, ST=MA, L=Tres Cantos, O=eProsima, CN=eProsima Main Test CA/emailAddress=routertest@eprosima.com
        Validity
            Not Before: Jun  2 09:19:00 2023 GMT
            Not After : May 30 09:19:00 2033 GMT
        Subject: C=ES, ST=MA, O=eProsima, CN=BackdoorTestRouter/emailAddress=routertest@eprosima.com
        Subject Public Key Info:
            Public Key Algorithm: id-ecPublicKey
                Public-Key: (256 bit)
                pub:
                    04:00:c4:10:32:c2:c8:d5:02:46:ef:14:e6:02:36:
                    7b:b3:b8:2a:87:55:c9:0a:6e:8e:9f:c7:3c:e4:04:
                    ca:43:84:0c:9e:bc:b5:34:90:9d:0b:aa:d2:d6:e7:
                    da:5e:fa:8b:87:07:d1:6a:59:69:27:5c:9b:c6:72:
                    b0:5a:10:52:ee
                ASN1 OID: prime256v1
                NIST CURVE: P-256
    Signature Algorithm: ecdsa-with-SHA256
    Signature Value:
        30:44:02:20:27:0e:a8:a1:b0:65:c7:da:a8:7b:b7:ab:c3:24:
        90:b9:c9:86:b9:02:02:23:b9:65:33:0c:38:98:aa:8f:7b:db:
        02:20:2a:f3:d3:cd:27:d9:a3:df:61:c3:6f:c6:8d:2b:71:ca:
        66:cd:7a:cf:6e:47:cd:6b:ef:ca:0f:d6:c3:32:80:f2
-----BEGIN CERTIFICATE-----
MIIB+DCCAZ8CFBBPChhHOvfZBYNT0jrCV47OcXRUMAoGCCqGSM49BAMCMIGLMQsw
CQYDVQQGEwJFUzELMAkGA1UECAwCTUExFDASBgNVBAcMC1RyZXMgQ2FudG9zMREw
DwYDVQQKDAhlUHJvc2ltYTEeMBwGA1UEAwwVZVByb3NpbWEgTWFpbiBUZXN0IENB
MSYwJAYJKoZIhvcNAQkBFhdyb3V0ZXJ0ZXN0QGVwcm9zaW1hLmNvbTAeFw0yMzA2
MDIwOTE5MDBaFw0zMzA1MzAwOTE5MDBaMHIxCzAJBgNVBAYTAkVTMQswCQYDVQQI
DAJNQTERMA8GA1UECgwIZVByb3NpbWExGzAZBgNVBAMMEkJhY2tkb29yVGVzdFJv
dXRlcjEmMCQGCSqGSIb3DQEJARYXcm91dGVydGVzdEBlcHJvc2ltYS5jb20wWTAT
BgcqhkjOPQIBBggqhkjOPQMBBwNCAAQAxBAywsjVAkbvFOYCNnuzuCqHVckKbo6f
xzzkBMpDhAyevLU0kJ0LqtLW59pe+ouHB9FqWWknXJvGcrBaEFLuMAoGCCqGSM49
BAMCA0cAMEQCICcOqKGwZcfaqHu3q8MkkLnJhrkCAiO5ZTMMOJiqj3vbAiAq89PN
J9mj32HDb8aNK3HKZs16z25HzWvvyg/WwzKA8g==
-----END CERTIFICATE-----
