Certificate:
    Data:
        Version: 1 (0x0)
        Serial Number:
            05:0d:07:e5:af:0d:44:3c:98:d3:6a:b6:aa:e5:24:c1:91:0d:4e:bd
        Signature Algorithm: ecdsa-with-SHA256
        Issuer: C=ES, ST=MA, L=Tres Cantos, O=eProsima, CN=eProsima Main Test CA/emailAddress=routertest@eprosima.com
        Validity
            Not Before: Dec 26 08:08:21 2023 GMT
            Not After : Dec 23 08:08:21 2033 GMT
        Subject: C=ES, ST=MA, O=eProsima, CN=WanTestClient/emailAddress=routertest@eprosima.com
        Subject Public Key Info:
            Public Key Algorithm: id-ecPublicKey
                Public-Key: (256 bit)
                pub:
                    04:13:f6:28:45:27:28:7e:4d:66:db:7a:ca:7c:e9:
                    60:79:33:3a:b2:2e:fc:20:6f:74:98:86:31:6c:63:
                    07:e3:6f:f7:2e:ea:1b:b0:35:d3:3c:c2:57:f5:c8:
                    ec:5b:85:b9:39:03:c6:45:71:10:a7:b5:36:6b:63:
                    f3:9c:58:32:3d
                ASN1 OID: prime256v1
                NIST CURVE: P-256
    Signature Algorithm: ecdsa-with-SHA256
    Signature Value:
        30:44:02:20:62:74:ef:b4:72:f7:e4:6c:c8:95:5c:00:63:5a:
        fc:08:48:42:37:e5:a0:51:1b:08:30:90:73:40:d2:db:93:f6:
        02:20:0c:5d:55:43:97:76:99:b9:1d:82:70:f2:8d:6f:55:84:
        7d:76:15:db:5a:c5:47:56:ec:eb:22:5e:7a:9e:2a:21
-----BEGIN CERTIFICATE-----
MIIB8zCCAZoCFAUNB+WvDUQ8mNNqtqrlJMGRDU69MAoGCCqGSM49BAMCMIGLMQsw
CQYDVQQGEwJFUzELMAkGA1UECAwCTUExFDASBgNVBAcMC1RyZXMgQ2FudG9zMREw
DwYDVQQKDAhlUHJvc2ltYTEeMBwGA1UEAwwVZVByb3NpbWEgTWFpbiBUZXN0IENB
MSYwJAYJKoZIhvcNAQkBFhdyb3V0ZXJ0ZXN0QGVwcm9zaW1hLmNvbTAeFw0yMzEy
MjYwODA4MjFaFw0zMzEyMjMwODA4MjFaMG0xCzAJBgNVBAYTAkVTMQswCQYDVQQI
DAJNQTERMA8GA1UECgwIZVByb3NpbWExFjAUBgNVBAMMDVdhblRlc3RDbGllbnQx
JjAkBgkqhkiG9w0BCQEWF3JvdXRlcnRlc3RAZXByb3NpbWEuY29tMFkwEwYHKoZI
zj0CAQYIKoZIzj0DAQcDQgAEE/YoRScofk1m23rKfOlgeTM6si78IG90mIYxbGMH
42/3LuobsDXTPMJX9cjsW4W5OQPGRXEQp7U2a2PznFgyPTAKBggqhkjOPQQDAgNH
ADBEAiBidO+0cvfkbMiVXABjWvwISEI35aBRGwgwkHNA0tuT9gIgDF1VQ5d2mbkd
gnDyjW9VhH12FdtaxUdW7OsiXnqeKiE=
-----END CERTIFICATE-----
