Certificate:
    Data:
        Version: 1 (0x0)
        Serial Number:
            26:f6:c3:f2:86:65:b8:0e:aa:6e:59:52:50:88:58:70:14:f2:09:76
        Signature Algorithm: ecdsa-with-SHA256
        Issuer: C=ES, ST=MA, L=Tres Cantos, O=eProsima, CN=eProsima Main Test CA/emailAddress=routertest@eprosima.com
        Validity
            Not Before: Mar 24 10:33:23 2025 GMT
            Not After : Mar 22 10:33:23 2035 GMT
        Subject: C=ES, ST=MA, O=eProsima, CN=WanTestClient/emailAddress=routertest@eprosima.com
        Subject Public Key Info:
            Public Key Algorithm: id-ecPublicKey
                Public-Key: (256 bit)
                pub:
                    04:cc:9c:e8:3f:34:9a:46:27:f6:ac:b8:0b:eb:bf:
                    d4:1d:2d:58:54:9e:ff:51:3c:4f:52:4d:b6:7d:e2:
                    5a:8f:d7:57:a4:e3:b5:48:eb:34:81:31:a9:6a:a8:
                    0c:42:35:2b:b0:b1:e3:2b:b7:0c:42:fb:ff:ac:c8:
                    6f:80:c6:23:f7
                ASN1 OID: prime256v1
                NIST CURVE: P-256
    Signature Algorithm: ecdsa-with-SHA256
    Signature Value:
        30:46:02:21:00:94:69:29:dd:80:17:1e:ce:23:0a:1c:10:68:
        be:e8:20:7e:91:a4:1c:89:b1:3b:ea:75:4f:1b:00:f9:d0:c7:
        90:02:21:00:9a:b7:93:76:a7:05:89:a7:06:3b:f0:f3:d0:47:
        3d:90:50:a5:13:97:41:ef:b0:cc:86:d4:9d:97:f3:b8:5f:91
-----BEGIN CERTIFICATE-----
MIIB9TCCAZoCFCb2w/KGZbgOqm5ZUlCIWHAU8gl2MAoGCCqGSM49BAMCMIGLMQsw
CQYDVQQGEwJFUzELMAkGA1UECAwCTUExFDASBgNVBAcMC1RyZXMgQ2FudG9zMREw
DwYDVQQKDAhlUHJvc2ltYTEeMBwGA1UEAwwVZVByb3NpbWEgTWFpbiBUZXN0IENB
MSYwJAYJKoZIhvcNAQkBFhdyb3V0ZXJ0ZXN0QGVwcm9zaW1hLmNvbTAeFw0yNTAz
MjQxMDMzMjNaFw0zNTAzMjIxMDMzMjNaMG0xCzAJBgNVBAYTAkVTMQswCQYDVQQI
DAJNQTERMA8GA1UECgwIZVByb3NpbWExFjAUBgNVBAMMDVdhblRlc3RDbGllbnQx
JjAkBgkqhkiG9w0BCQEWF3JvdXRlcnRlc3RAZXByb3NpbWEuY29tMFkwEwYHKoZI
zj0CAQYIKoZIzj0DAQcDQgAEzJzoPzSaRif2rLgL67/UHS1YVJ7/UTxPUk22feJa
j9dXpOO1SOs0gTGpaqgMQjUrsLHjK7cMQvv/rMhvgMYj9zAKBggqhkjOPQQDAgNJ
ADBGAiEAlGkp3YAXHs4jChwQaL7oIH6RpByJsTvqdU8bAPnQx5ACIQCat5N2pwWJ
pwY78PPQRz2QUKUTl0HvsMyG1J2X87hfkQ==
-----END CERTIFICATE-----
