Certificate:
    Data:
        Version: 1 (0x0)
        Serial Number:
            4c:ce:20:af:77:0d:1b:bf:48:40:cc:f7:2a:44:1b:a5:6b:2a:3f:f6
        Signature Algorithm: ecdsa-with-SHA256
        Issuer: C=ES, ST=MA, L=Tres Cantos, O=eProsima, CN=eProsima Main Test CA/emailAddress=routertest@eprosima.com
        Validity
            Not Before: Apr 14 13:48:22 2026 GMT
            Not After : Apr 11 13:48:22 2036 GMT
        Subject: C=ES, ST=MA, O=eProsima, CN=WanTestClient/emailAddress=routertest@eprosima.com
        Subject Public Key Info:
            Public Key Algorithm: id-ecPublicKey
                Public-Key: (256 bit)
                pub:
                    04:ba:88:cb:57:50:55:48:7a:1c:4d:a8:51:6a:cd:
                    6d:d6:d1:8f:ca:fc:d0:42:87:d8:25:f7:ef:32:df:
                    63:bd:3a:a7:7e:c3:61:3e:09:1a:32:54:0b:84:8e:
                    26:b5:8e:e0:60:47:be:3c:c3:6d:60:5c:d8:c5:11:
                    9b:94:86:87:36
                ASN1 OID: prime256v1
                NIST CURVE: P-256
    Signature Algorithm: ecdsa-with-SHA256
    Signature Value:
        30:46:02:21:00:81:04:c7:ce:bc:56:5c:92:ec:ad:28:ec:20:
        43:a1:12:4f:bc:0c:29:b5:56:9b:98:24:d2:66:f4:c5:15:73:
        28:02:21:00:ca:c0:c8:22:38:c4:36:ee:ee:27:8b:76:ce:34:
        52:8f:79:25:8b:c9:4d:0c:1e:35:5f:31:e7:67:e5:e4:91:db
-----BEGIN CERTIFICATE-----
MIIB9TCCAZoCFEzOIK93DRu/SEDM9ypEG6VrKj/2MAoGCCqGSM49BAMCMIGLMQsw
CQYDVQQGEwJFUzELMAkGA1UECAwCTUExFDASBgNVBAcMC1RyZXMgQ2FudG9zMREw
DwYDVQQKDAhlUHJvc2ltYTEeMBwGA1UEAwwVZVByb3NpbWEgTWFpbiBUZXN0IENB
MSYwJAYJKoZIhvcNAQkBFhdyb3V0ZXJ0ZXN0QGVwcm9zaW1hLmNvbTAeFw0yNjA0
MTQxMzQ4MjJaFw0zNjA0MTExMzQ4MjJaMG0xCzAJBgNVBAYTAkVTMQswCQYDVQQI
DAJNQTERMA8GA1UECgwIZVByb3NpbWExFjAUBgNVBAMMDVdhblRlc3RDbGllbnQx
JjAkBgkqhkiG9w0BCQEWF3JvdXRlcnRlc3RAZXByb3NpbWEuY29tMFkwEwYHKoZI
zj0CAQYIKoZIzj0DAQcDQgAEuojLV1BVSHocTahRas1t1tGPyvzQQofYJffvMt9j
vTqnfsNhPgkaMlQLhI4mtY7gYEe+PMNtYFzYxRGblIaHNjAKBggqhkjOPQQDAgNJ
ADBGAiEAgQTHzrxWXJLsrSjsIEOhEk+8DCm1VpuYJNJm9MUVcygCIQDKwMgiOMQ2
7u4ni3bONFKPeSWLyU0MHjVfMedn5eSR2w==
-----END CERTIFICATE-----
