Certificate:
    Data:
        Version: 1 (0x0)
        Serial Number:
            26:dc:b7:ee:d6:6e:13:32:9c:0a:5a:e8:0b:84:1c:36:cc:00:62:ac
        Signature Algorithm: ecdsa-with-SHA256
        Issuer: C=ES, ST=MA, L=Tres Cantos, O=eProsima, CN=eProsima Main Test CA/emailAddress=routertest@eprosima.com
        Validity
            Not Before: Dec 27 09:16:54 2023 GMT
            Not After : Dec 24 09:16:54 2033 GMT
        Subject: C=ES, ST=MA, O=eProsima, CN=WanTestClient/emailAddress=routertest@eprosima.com
        Subject Public Key Info:
            Public Key Algorithm: id-ecPublicKey
                Public-Key: (256 bit)
                pub:
                    04:6a:fe:50:1a:86:a5:71:d0:90:e3:e8:95:9e:fc:
                    aa:79:65:24:54:2e:52:87:fa:c2:5d:1e:c7:b0:06:
                    5b:e4:1f:e8:57:ab:cd:15:92:8a:bb:b9:07:f0:69:
                    45:84:15:5c:86:4e:16:4c:af:b4:1d:e9:21:21:e1:
                    f4:6c:73:c2:30
                ASN1 OID: prime256v1
                NIST CURVE: P-256
    Signature Algorithm: ecdsa-with-SHA256
    Signature Value:
        30:46:02:21:00:9a:93:cc:69:f2:a4:c4:d0:db:3f:ee:37:3a:
        f3:ae:7b:7f:1d:17:a9:33:1d:1b:78:87:f1:7d:ea:9b:d4:d9:
        f9:02:21:00:f2:1a:78:66:1e:f1:ed:65:13:71:f4:19:68:36:
        66:bc:67:9f:75:f7:c9:10:32:ba:1a:4f:6c:c6:ed:8b:e4:e7
-----BEGIN CERTIFICATE-----
MIIB9TCCAZoCFCbct+7WbhMynApa6AuEHDbMAGKsMAoGCCqGSM49BAMCMIGLMQsw
CQYDVQQGEwJFUzELMAkGA1UECAwCTUExFDASBgNVBAcMC1RyZXMgQ2FudG9zMREw
DwYDVQQKDAhlUHJvc2ltYTEeMBwGA1UEAwwVZVByb3NpbWEgTWFpbiBUZXN0IENB
MSYwJAYJKoZIhvcNAQkBFhdyb3V0ZXJ0ZXN0QGVwcm9zaW1hLmNvbTAeFw0yMzEy
MjcwOTE2NTRaFw0zMzEyMjQwOTE2NTRaMG0xCzAJBgNVBAYTAkVTMQswCQYDVQQI
DAJNQTERMA8GA1UECgwIZVByb3NpbWExFjAUBgNVBAMMDVdhblRlc3RDbGllbnQx
JjAkBgkqhkiG9w0BCQEWF3JvdXRlcnRlc3RAZXByb3NpbWEuY29tMFkwEwYHKoZI
zj0CAQYIKoZIzj0DAQcDQgAEav5QGoalcdCQ4+iVnvyqeWUkVC5Sh/rCXR7HsAZb
5B/oV6vNFZKKu7kH8GlFhBVchk4WTK+0HekhIeH0bHPCMDAKBggqhkjOPQQDAgNJ
ADBGAiEAmpPMafKkxNDbP+43OvOue38dF6kzHRt4h/F96pvU2fkCIQDyGnhmHvHt
ZRNx9BloNma8Z59198kQMroaT2zG7Yvk5w==
-----END CERTIFICATE-----
