Certificate:
    Data:
        Version: 1 (0x0)
        Serial Number:
            10:4f:0a:18:47:3a:f7:d9:05:83:53:d2:3a:c2:57:8e:ce:71:74:66
        Signature Algorithm: ecdsa-with-SHA256
        Issuer: C=ES, ST=MA, L=Tres Cantos, O=eProsima, CN=eProsima Main Test CA/emailAddress=routertest@eprosima.com
        Validity
            Not Before: Jun  5 06:51:04 2023 GMT
            Not After : Jun  2 06:51:04 2033 GMT
        Subject: C=ES, ST=MA, O=eProsima, CN=WanTestClient/emailAddress=routertest@eprosima.com
        Subject Public Key Info:
            Public Key Algorithm: id-ecPublicKey
                Public-Key: (256 bit)
                pub:
                    04:ba:12:e9:77:77:4f:40:b1:43:70:b9:57:38:a0:
                    e1:bc:e5:c0:06:5d:50:74:94:e2:e3:7a:7c:90:52:
                    cc:0f:32:e2:b7:2b:7e:dc:da:a8:9c:4c:47:59:5a:
                    64:3c:fe:6a:c5:2a:80:c5:d5:65:28:c0:4c:d7:9d:
                    a9:51:ec:a5:11
                ASN1 OID: prime256v1
                NIST CURVE: P-256
    Signature Algorithm: ecdsa-with-SHA256
    Signature Value:
        30:45:02:20:62:ff:fb:0b:48:14:c9:9f:6a:d3:aa:35:21:5f:
        45:b1:19:d3:10:f1:0f:bf:1d:94:9f:e0:ab:c3:a3:6e:19:08:
        02:21:00:ed:7a:e0:fe:1e:51:72:8f:7c:70:a2:bc:db:ea:8f:
        bd:71:7a:64:0f:57:93:14:46:b5:db:83:d1:2a:8f:aa:84
-----BEGIN CERTIFICATE-----
MIIB9DCCAZoCFBBPChhHOvfZBYNT0jrCV47OcXRmMAoGCCqGSM49BAMCMIGLMQsw
CQYDVQQGEwJFUzELMAkGA1UECAwCTUExFDASBgNVBAcMC1RyZXMgQ2FudG9zMREw
DwYDVQQKDAhlUHJvc2ltYTEeMBwGA1UEAwwVZVByb3NpbWEgTWFpbiBUZXN0IENB
MSYwJAYJKoZIhvcNAQkBFhdyb3V0ZXJ0ZXN0QGVwcm9zaW1hLmNvbTAeFw0yMzA2
MDUwNjUxMDRaFw0zMzA2MDIwNjUxMDRaMG0xCzAJBgNVBAYTAkVTMQswCQYDVQQI
DAJNQTERMA8GA1UECgwIZVByb3NpbWExFjAUBgNVBAMMDVdhblRlc3RDbGllbnQx
JjAkBgkqhkiG9w0BCQEWF3JvdXRlcnRlc3RAZXByb3NpbWEuY29tMFkwEwYHKoZI
zj0CAQYIKoZIzj0DAQcDQgAEuhLpd3dPQLFDcLlXOKDhvOXABl1QdJTi43p8kFLM
DzLityt+3NqonExHWVpkPP5qxSqAxdVlKMBM152pUeylETAKBggqhkjOPQQDAgNI
ADBFAiBi//sLSBTJn2rTqjUhX0WxGdMQ8Q+/HZSf4KvDo24ZCAIhAO164P4eUXKP
fHCivNvqj71xemQPV5MURrXbg9Eqj6qE
-----END CERTIFICATE-----
