Certificate:
    Data:
        Version: 1 (0x0)
        Serial Number:
            4c:ce:20:af:77:0d:1b:bf:48:40:cc:f7:2a:44:1b:a5:6b:2a:3f:ef
        Signature Algorithm: ecdsa-with-SHA256
        Issuer: C=ES, ST=MA, L=Tres Cantos, O=eProsima, CN=eProsima Main Test CA/emailAddress=routertest@eprosima.com
        Validity
            Not Before: Apr 14 13:48:21 2026 GMT
            Not After : Apr 11 13:48:21 2036 GMT
        Subject: C=ES, ST=MA, O=eProsima, CN=WanTestLocalPub0/emailAddress=routertest@eprosima.com
        Subject Public Key Info:
            Public Key Algorithm: id-ecPublicKey
                Public-Key: (256 bit)
                pub:
                    04:88:ba:60:ab:20:13:6b:45:a9:fc:44:71:50:44:
                    19:f0:2d:d6:46:cb:93:3e:cc:07:7a:dc:38:f3:92:
                    51:e3:74:27:18:f0:cc:bc:f7:49:39:34:24:e0:da:
                    dc:f7:bc:94:b9:ee:e4:30:14:1b:2e:ee:b3:d2:49:
                    f7:ec:e6:11:22
                ASN1 OID: prime256v1
                NIST CURVE: P-256
    Signature Algorithm: ecdsa-with-SHA256
    Signature Value:
        30:46:02:21:00:9e:af:6e:84:8c:12:c0:52:e0:e6:bf:0b:17:
        54:e7:67:13:d0:8c:c8:45:10:a7:14:49:8d:ea:d7:96:9b:46:
        84:02:21:00:cf:c1:3b:14:ce:4a:69:a5:3a:63:99:1f:c9:0e:
        50:96:3c:ad:05:33:04:9a:ef:93:52:e7:99:7f:53:91:ee:bc
-----BEGIN CERTIFICATE-----
MIIB+DCCAZ0CFEzOIK93DRu/SEDM9ypEG6VrKj/vMAoGCCqGSM49BAMCMIGLMQsw
CQYDVQQGEwJFUzELMAkGA1UECAwCTUExFDASBgNVBAcMC1RyZXMgQ2FudG9zMREw
DwYDVQQKDAhlUHJvc2ltYTEeMBwGA1UEAwwVZVByb3NpbWEgTWFpbiBUZXN0IENB
MSYwJAYJKoZIhvcNAQkBFhdyb3V0ZXJ0ZXN0QGVwcm9zaW1hLmNvbTAeFw0yNjA0
MTQxMzQ4MjFaFw0zNjA0MTExMzQ4MjFaMHAxCzAJBgNVBAYTAkVTMQswCQYDVQQI
DAJNQTERMA8GA1UECgwIZVByb3NpbWExGTAXBgNVBAMMEFdhblRlc3RMb2NhbFB1
YjAxJjAkBgkqhkiG9w0BCQEWF3JvdXRlcnRlc3RAZXByb3NpbWEuY29tMFkwEwYH
KoZIzj0CAQYIKoZIzj0DAQcDQgAEiLpgqyATa0Wp/ERxUEQZ8C3WRsuTPswHetw4
85JR43QnGPDMvPdJOTQk4Nrc97yUue7kMBQbLu6z0kn37OYRIjAKBggqhkjOPQQD
AgNJADBGAiEAnq9uhIwSwFLg5r8LF1TnZxPQjMhFEKcUSY3q15abRoQCIQDPwTsU
zkpppTpjmR/JDlCWPK0FMwSa75NS55l/U5HuvA==
-----END CERTIFICATE-----
