Certificate:
    Data:
        Version: 1 (0x0)
        Serial Number:
            26:dc:b7:ee:d6:6e:13:32:9c:0a:5a:e8:0b:84:1c:36:cc:00:62:a6
        Signature Algorithm: ecdsa-with-SHA256
        Issuer: C=ES, ST=MA, L=Tres Cantos, O=eProsima, CN=eProsima Main Test CA/emailAddress=routertest@eprosima.com
        Validity
            Not Before: Dec 27 09:16:54 2023 GMT
            Not After : Dec 24 09:16:54 2033 GMT
        Subject: C=ES, ST=MA, O=eProsima, CN=WanTestLocalSub0/emailAddress=routertest@eprosima.com
        Subject Public Key Info:
            Public Key Algorithm: id-ecPublicKey
                Public-Key: (256 bit)
                pub:
                    04:6c:55:86:24:17:a4:cc:4f:28:90:15:09:e5:9e:
                    14:50:29:97:a1:2e:b4:fc:29:36:82:9c:47:66:a3:
                    4c:f4:36:23:e5:bb:e2:a5:c8:7d:4d:dc:22:63:55:
                    8b:90:7a:b0:60:ee:63:c5:cb:fd:ba:26:8e:73:39:
                    ee:7e:74:4c:c4
                ASN1 OID: prime256v1
                NIST CURVE: P-256
    Signature Algorithm: ecdsa-with-SHA256
    Signature Value:
        30:45:02:20:6b:6c:29:72:c8:73:2b:7c:4d:db:78:ff:e7:09:
        e3:2a:f1:76:86:2a:56:d3:cd:91:4c:6f:49:69:f7:31:ee:39:
        02:21:00:e0:00:99:5e:76:a6:64:33:bd:11:55:61:c7:c9:77:
        b8:ff:d5:c7:4e:0a:0c:c4:0e:a7:c2:da:9b:b7:da:3e:ce
-----BEGIN CERTIFICATE-----
MIIB9zCCAZ0CFCbct+7WbhMynApa6AuEHDbMAGKmMAoGCCqGSM49BAMCMIGLMQsw
CQYDVQQGEwJFUzELMAkGA1UECAwCTUExFDASBgNVBAcMC1RyZXMgQ2FudG9zMREw
DwYDVQQKDAhlUHJvc2ltYTEeMBwGA1UEAwwVZVByb3NpbWEgTWFpbiBUZXN0IENB
MSYwJAYJKoZIhvcNAQkBFhdyb3V0ZXJ0ZXN0QGVwcm9zaW1hLmNvbTAeFw0yMzEy
MjcwOTE2NTRaFw0zMzEyMjQwOTE2NTRaMHAxCzAJBgNVBAYTAkVTMQswCQYDVQQI
DAJNQTERMA8GA1UECgwIZVByb3NpbWExGTAXBgNVBAMMEFdhblRlc3RMb2NhbFN1
YjAxJjAkBgkqhkiG9w0BCQEWF3JvdXRlcnRlc3RAZXByb3NpbWEuY29tMFkwEwYH
KoZIzj0CAQYIKoZIzj0DAQcDQgAEbFWGJBekzE8okBUJ5Z4UUCmXoS60/Ck2gpxH
ZqNM9DYj5bvipch9TdwiY1WLkHqwYO5jxcv9uiaOcznufnRMxDAKBggqhkjOPQQD
AgNIADBFAiBrbClyyHMrfE3beP/nCeMq8XaGKlbTzZFMb0lp9zHuOQIhAOAAmV52
pmQzvRFVYcfJd7j/1cdOCgzEDqfC2pu32j7O
-----END CERTIFICATE-----
