Certificate:
    Data:
        Version: 1 (0x0)
        Serial Number:
            4c:ce:20:af:77:0d:1b:bf:48:40:cc:f7:2a:44:1b:a5:6b:2a:3f:f1
        Signature Algorithm: ecdsa-with-SHA256
        Issuer: C=ES, ST=MA, L=Tres Cantos, O=eProsima, CN=eProsima Main Test CA/emailAddress=routertest@eprosima.com
        Validity
            Not Before: Apr 14 13:48:21 2026 GMT
            Not After : Apr 11 13:48:21 2036 GMT
        Subject: C=ES, ST=MA, O=eProsima, CN=WanTestLocalPub1/emailAddress=routertest@eprosima.com
        Subject Public Key Info:
            Public Key Algorithm: id-ecPublicKey
                Public-Key: (256 bit)
                pub:
                    04:72:49:11:28:b8:34:26:1e:69:31:48:be:49:bd:
                    ad:86:c2:9c:e1:98:89:18:0d:b6:c4:d1:c8:45:85:
                    c2:9d:f4:26:02:f8:45:06:35:20:48:22:1b:39:b0:
                    3c:8f:0a:30:24:cd:f6:26:10:70:a2:de:e5:1b:61:
                    98:e8:92:b4:dd
                ASN1 OID: prime256v1
                NIST CURVE: P-256
    Signature Algorithm: ecdsa-with-SHA256
    Signature Value:
        30:44:02:20:06:2c:e8:89:3c:6d:b7:95:b9:1a:7e:b0:e5:b0:
        f4:98:1c:30:31:85:d5:7b:a1:2c:14:59:d5:5c:68:cb:25:90:
        02:20:01:a8:b7:06:90:f3:5d:ea:bb:5e:aa:0a:e5:99:75:0a:
        1f:d8:2e:fd:df:80:79:ea:1b:b8:8b:52:d3:f2:15:38
-----BEGIN CERTIFICATE-----
MIIB9jCCAZ0CFEzOIK93DRu/SEDM9ypEG6VrKj/xMAoGCCqGSM49BAMCMIGLMQsw
CQYDVQQGEwJFUzELMAkGA1UECAwCTUExFDASBgNVBAcMC1RyZXMgQ2FudG9zMREw
DwYDVQQKDAhlUHJvc2ltYTEeMBwGA1UEAwwVZVByb3NpbWEgTWFpbiBUZXN0IENB
MSYwJAYJKoZIhvcNAQkBFhdyb3V0ZXJ0ZXN0QGVwcm9zaW1hLmNvbTAeFw0yNjA0
MTQxMzQ4MjFaFw0zNjA0MTExMzQ4MjFaMHAxCzAJBgNVBAYTAkVTMQswCQYDVQQI
DAJNQTERMA8GA1UECgwIZVByb3NpbWExGTAXBgNVBAMMEFdhblRlc3RMb2NhbFB1
YjExJjAkBgkqhkiG9w0BCQEWF3JvdXRlcnRlc3RAZXByb3NpbWEuY29tMFkwEwYH
KoZIzj0CAQYIKoZIzj0DAQcDQgAEckkRKLg0Jh5pMUi+Sb2thsKc4ZiJGA22xNHI
RYXCnfQmAvhFBjUgSCIbObA8jwowJM32JhBwot7lG2GY6JK03TAKBggqhkjOPQQD
AgNHADBEAiAGLOiJPG23lbkafrDlsPSYHDAxhdV7oSwUWdVcaMslkAIgAai3BpDz
Xeq7XqoK5Zl1Ch/YLv3fgHnqG7iLUtPyFTg=
-----END CERTIFICATE-----
