Certificate:
    Data:
        Version: 1 (0x0)
        Serial Number:
            05:0d:07:e5:af:0d:44:3c:98:d3:6a:b6:aa:e5:24:c1:91:0d:4e:b6
        Signature Algorithm: ecdsa-with-SHA256
        Issuer: C=ES, ST=MA, L=Tres Cantos, O=eProsima, CN=eProsima Main Test CA/emailAddress=routertest@eprosima.com
        Validity
            Not Before: Dec 26 08:08:21 2023 GMT
            Not After : Dec 23 08:08:21 2033 GMT
        Subject: C=ES, ST=MA, O=eProsima, CN=WanTestLocalPub0/emailAddress=routertest@eprosima.com
        Subject Public Key Info:
            Public Key Algorithm: id-ecPublicKey
                Public-Key: (256 bit)
                pub:
                    04:b4:f5:fc:91:f6:48:d9:02:f8:fa:1b:69:e5:7a:
                    d6:f4:dd:c9:ab:19:49:ee:8b:e8:51:b3:64:5e:e2:
                    e8:8a:ca:12:34:8d:9e:ea:32:60:08:1d:a0:86:7c:
                    df:9b:29:7f:a3:d2:a7:a7:fe:5f:c5:f0:33:b0:50:
                    21:d8:f7:b6:80
                ASN1 OID: prime256v1
                NIST CURVE: P-256
    Signature Algorithm: ecdsa-with-SHA256
    Signature Value:
        30:46:02:21:00:9b:4d:dc:4a:a1:dc:7d:48:d3:41:12:20:94:
        01:93:5d:8b:da:3f:47:95:0f:11:14:ae:54:fe:34:ac:db:72:
        0b:02:21:00:f7:83:93:e0:71:0a:b3:21:ee:2f:5b:40:26:41:
        a7:b4:3a:7d:0a:f9:1c:f0:dc:87:ad:f3:13:76:38:9c:cc:d1
-----BEGIN CERTIFICATE-----
MIIB+DCCAZ0CFAUNB+WvDUQ8mNNqtqrlJMGRDU62MAoGCCqGSM49BAMCMIGLMQsw
CQYDVQQGEwJFUzELMAkGA1UECAwCTUExFDASBgNVBAcMC1RyZXMgQ2FudG9zMREw
DwYDVQQKDAhlUHJvc2ltYTEeMBwGA1UEAwwVZVByb3NpbWEgTWFpbiBUZXN0IENB
MSYwJAYJKoZIhvcNAQkBFhdyb3V0ZXJ0ZXN0QGVwcm9zaW1hLmNvbTAeFw0yMzEy
MjYwODA4MjFaFw0zMzEyMjMwODA4MjFaMHAxCzAJBgNVBAYTAkVTMQswCQYDVQQI
DAJNQTERMA8GA1UECgwIZVByb3NpbWExGTAXBgNVBAMMEFdhblRlc3RMb2NhbFB1
YjAxJjAkBgkqhkiG9w0BCQEWF3JvdXRlcnRlc3RAZXByb3NpbWEuY29tMFkwEwYH
KoZIzj0CAQYIKoZIzj0DAQcDQgAEtPX8kfZI2QL4+htp5XrW9N3JqxlJ7ovoUbNk
XuLoisoSNI2e6jJgCB2ghnzfmyl/o9Knp/5fxfAzsFAh2Pe2gDAKBggqhkjOPQQD
AgNJADBGAiEAm03cSqHcfUjTQRIglAGTXYvaP0eVDxEUrlT+NKzbcgsCIQD3g5Pg
cQqzIe4vW0AmQae0On0K+Rzw3Iet8xN2OJzM0Q==
-----END CERTIFICATE-----
