Certificate:
    Data:
        Version: 1 (0x0)
        Serial Number:
            26:f6:c3:f2:86:65:b8:0e:aa:6e:59:52:50:88:58:70:14:f2:09:70
        Signature Algorithm: ecdsa-with-SHA256
        Issuer: C=ES, ST=MA, L=Tres Cantos, O=eProsima, CN=eProsima Main Test CA/emailAddress=routertest@eprosima.com
        Validity
            Not Before: Mar 24 10:33:23 2025 GMT
            Not After : Mar 22 10:33:23 2035 GMT
        Subject: C=ES, ST=MA, O=eProsima, CN=WanTestLocalSub0/emailAddress=routertest@eprosima.com
        Subject Public Key Info:
            Public Key Algorithm: id-ecPublicKey
                Public-Key: (256 bit)
                pub:
                    04:88:02:dc:fe:6a:f5:73:5e:be:67:05:48:b9:f2:
                    96:93:51:14:0e:bd:36:71:98:e6:6b:1c:b9:74:29:
                    07:03:a9:41:cd:06:f3:1d:89:28:0a:ed:cd:70:1b:
                    90:ea:c5:ce:d5:13:a0:52:cb:5d:d3:c0:7e:8b:5d:
                    51:82:7a:5a:eb
                ASN1 OID: prime256v1
                NIST CURVE: P-256
    Signature Algorithm: ecdsa-with-SHA256
    Signature Value:
        30:46:02:21:00:f5:ee:ce:99:15:ce:e3:ba:43:50:09:96:8c:
        ab:95:a7:88:5f:b2:eb:6f:db:3a:11:8d:39:e0:15:de:c6:ee:
        8a:02:21:00:8c:a2:55:3c:33:87:ba:e9:b7:b2:66:65:f1:b6:
        39:0a:31:12:53:8c:46:96:51:ad:91:6c:73:3d:f3:a5:48:80
-----BEGIN CERTIFICATE-----
MIIB+DCCAZ0CFCb2w/KGZbgOqm5ZUlCIWHAU8glwMAoGCCqGSM49BAMCMIGLMQsw
CQYDVQQGEwJFUzELMAkGA1UECAwCTUExFDASBgNVBAcMC1RyZXMgQ2FudG9zMREw
DwYDVQQKDAhlUHJvc2ltYTEeMBwGA1UEAwwVZVByb3NpbWEgTWFpbiBUZXN0IENB
MSYwJAYJKoZIhvcNAQkBFhdyb3V0ZXJ0ZXN0QGVwcm9zaW1hLmNvbTAeFw0yNTAz
MjQxMDMzMjNaFw0zNTAzMjIxMDMzMjNaMHAxCzAJBgNVBAYTAkVTMQswCQYDVQQI
DAJNQTERMA8GA1UECgwIZVByb3NpbWExGTAXBgNVBAMMEFdhblRlc3RMb2NhbFN1
YjAxJjAkBgkqhkiG9w0BCQEWF3JvdXRlcnRlc3RAZXByb3NpbWEuY29tMFkwEwYH
KoZIzj0CAQYIKoZIzj0DAQcDQgAEiALc/mr1c16+ZwVIufKWk1EUDr02cZjmaxy5
dCkHA6lBzQbzHYkoCu3NcBuQ6sXO1ROgUstd08B+i11Rgnpa6zAKBggqhkjOPQQD
AgNJADBGAiEA9e7OmRXO47pDUAmWjKuVp4hfsutv2zoRjTngFd7G7ooCIQCMolU8
M4e66beyZmXxtjkKMRJTjEaWUa2RbHM986VIgA==
-----END CERTIFICATE-----
