Certificate:
    Data:
        Version: 1 (0x0)
        Serial Number:
            05:0d:07:e5:af:0d:44:3c:98:d3:6a:b6:aa:e5:24:c1:91:0d:4e:b7
        Signature Algorithm: ecdsa-with-SHA256
        Issuer: C=ES, ST=MA, L=Tres Cantos, O=eProsima, CN=eProsima Main Test CA/emailAddress=routertest@eprosima.com
        Validity
            Not Before: Dec 26 08:08:21 2023 GMT
            Not After : Dec 23 08:08:21 2033 GMT
        Subject: C=ES, ST=MA, O=eProsima, CN=WanTestLocalSub0/emailAddress=routertest@eprosima.com
        Subject Public Key Info:
            Public Key Algorithm: id-ecPublicKey
                Public-Key: (256 bit)
                pub:
                    04:b9:37:42:f0:5d:ee:4f:b1:6b:f6:3a:e3:78:aa:
                    32:96:a0:a2:f9:d5:1c:1c:2c:36:cb:00:cc:e4:25:
                    a1:8d:a4:df:51:fd:8b:1b:1e:37:19:d6:c9:ff:b7:
                    60:53:4d:07:eb:dc:31:f3:67:20:2d:38:ab:68:95:
                    3a:01:04:c0:c9
                ASN1 OID: prime256v1
                NIST CURVE: P-256
    Signature Algorithm: ecdsa-with-SHA256
    Signature Value:
        30:45:02:21:00:cc:8c:51:ac:21:5e:47:6e:07:50:ac:c4:36:
        26:e1:1d:f4:cb:6a:1f:c3:ce:c2:99:42:b7:03:0d:cd:56:da:
        d4:02:20:24:22:ed:28:8c:b5:9f:75:bf:48:28:ab:c1:ee:3d:
        f7:b4:36:e6:8d:c7:92:f7:eb:aa:73:72:c6:e7:29:b6:69
-----BEGIN CERTIFICATE-----
MIIB9zCCAZ0CFAUNB+WvDUQ8mNNqtqrlJMGRDU63MAoGCCqGSM49BAMCMIGLMQsw
CQYDVQQGEwJFUzELMAkGA1UECAwCTUExFDASBgNVBAcMC1RyZXMgQ2FudG9zMREw
DwYDVQQKDAhlUHJvc2ltYTEeMBwGA1UEAwwVZVByb3NpbWEgTWFpbiBUZXN0IENB
MSYwJAYJKoZIhvcNAQkBFhdyb3V0ZXJ0ZXN0QGVwcm9zaW1hLmNvbTAeFw0yMzEy
MjYwODA4MjFaFw0zMzEyMjMwODA4MjFaMHAxCzAJBgNVBAYTAkVTMQswCQYDVQQI
DAJNQTERMA8GA1UECgwIZVByb3NpbWExGTAXBgNVBAMMEFdhblRlc3RMb2NhbFN1
YjAxJjAkBgkqhkiG9w0BCQEWF3JvdXRlcnRlc3RAZXByb3NpbWEuY29tMFkwEwYH
KoZIzj0CAQYIKoZIzj0DAQcDQgAEuTdC8F3uT7Fr9jrjeKoylqCi+dUcHCw2ywDM
5CWhjaTfUf2LGx43GdbJ/7dgU00H69wx82cgLTiraJU6AQTAyTAKBggqhkjOPQQD
AgNIADBFAiEAzIxRrCFeR24HUKzENibhHfTLah/DzsKZQrcDDc1W2tQCICQi7SiM
tZ91v0goq8HuPfe0NuaNx5L366pzcsbnKbZp
-----END CERTIFICATE-----
