Certificate:
    Data:
        Version: 1 (0x0)
        Serial Number:
            26:dc:b7:ee:d6:6e:13:32:9c:0a:5a:e8:0b:84:1c:36:cc:00:62:a5
        Signature Algorithm: ecdsa-with-SHA256
        Issuer: C=ES, ST=MA, L=Tres Cantos, O=eProsima, CN=eProsima Main Test CA/emailAddress=routertest@eprosima.com
        Validity
            Not Before: Dec 27 09:16:54 2023 GMT
            Not After : Dec 24 09:16:54 2033 GMT
        Subject: C=ES, ST=MA, O=eProsima, CN=WanTestLocalPub0/emailAddress=routertest@eprosima.com
        Subject Public Key Info:
            Public Key Algorithm: id-ecPublicKey
                Public-Key: (256 bit)
                pub:
                    04:2f:a2:2b:fc:d7:b0:d4:fb:39:cf:44:23:ee:2a:
                    ed:12:df:49:7f:1f:73:34:b2:72:cc:8d:fe:d5:a5:
                    2c:e9:4c:33:73:15:59:f7:b4:16:13:de:23:04:3f:
                    3e:08:46:ea:99:a2:e1:d5:86:cd:93:de:03:a8:c6:
                    5d:c0:2c:a0:70
                ASN1 OID: prime256v1
                NIST CURVE: P-256
    Signature Algorithm: ecdsa-with-SHA256
    Signature Value:
        30:44:02:20:17:b6:8f:ca:d0:b0:5b:df:85:d3:2d:4c:ca:8a:
        bd:50:e1:4a:e5:5f:13:3f:0b:02:ad:77:e0:5e:aa:8b:b2:36:
        02:20:73:0c:87:c2:aa:4e:00:df:4f:4d:b7:68:b9:83:e4:1e:
        94:f2:f3:b9:89:f4:a4:04:2d:85:10:4b:ca:4e:ad:eb
-----BEGIN CERTIFICATE-----
MIIB9jCCAZ0CFCbct+7WbhMynApa6AuEHDbMAGKlMAoGCCqGSM49BAMCMIGLMQsw
CQYDVQQGEwJFUzELMAkGA1UECAwCTUExFDASBgNVBAcMC1RyZXMgQ2FudG9zMREw
DwYDVQQKDAhlUHJvc2ltYTEeMBwGA1UEAwwVZVByb3NpbWEgTWFpbiBUZXN0IENB
MSYwJAYJKoZIhvcNAQkBFhdyb3V0ZXJ0ZXN0QGVwcm9zaW1hLmNvbTAeFw0yMzEy
MjcwOTE2NTRaFw0zMzEyMjQwOTE2NTRaMHAxCzAJBgNVBAYTAkVTMQswCQYDVQQI
DAJNQTERMA8GA1UECgwIZVByb3NpbWExGTAXBgNVBAMMEFdhblRlc3RMb2NhbFB1
YjAxJjAkBgkqhkiG9w0BCQEWF3JvdXRlcnRlc3RAZXByb3NpbWEuY29tMFkwEwYH
KoZIzj0CAQYIKoZIzj0DAQcDQgAEL6Ir/New1Ps5z0Qj7irtEt9Jfx9zNLJyzI3+
1aUs6UwzcxVZ97QWE94jBD8+CEbqmaLh1YbNk94DqMZdwCygcDAKBggqhkjOPQQD
AgNHADBEAiAXto/K0LBb34XTLUzKir1Q4UrlXxM/CwKtd+BeqouyNgIgcwyHwqpO
AN9PTbdouYPkHpTy87mJ9KQELYUQS8pOres=
-----END CERTIFICATE-----
