Certificate:
    Data:
        Version: 1 (0x0)
        Serial Number:
            4c:ce:20:af:77:0d:1b:bf:48:40:cc:f7:2a:44:1b:a5:6b:2a:3f:f2
        Signature Algorithm: ecdsa-with-SHA256
        Issuer: C=ES, ST=MA, L=Tres Cantos, O=eProsima, CN=eProsima Main Test CA/emailAddress=routertest@eprosima.com
        Validity
            Not Before: Apr 14 13:48:21 2026 GMT
            Not After : Apr 11 13:48:21 2036 GMT
        Subject: C=ES, ST=MA, O=eProsima, CN=WanTestLocalSub1/emailAddress=routertest@eprosima.com
        Subject Public Key Info:
            Public Key Algorithm: id-ecPublicKey
                Public-Key: (256 bit)
                pub:
                    04:1d:69:26:1b:5b:15:8b:4a:eb:3e:10:6e:96:23:
                    d1:76:b1:c4:19:07:fb:1d:9b:59:fa:14:38:35:8b:
                    01:d2:46:39:2a:52:0c:60:85:99:b1:c3:65:70:e7:
                    7a:70:f1:21:d3:ee:cc:33:b9:db:48:71:c7:52:dc:
                    cb:3c:51:04:21
                ASN1 OID: prime256v1
                NIST CURVE: P-256
    Signature Algorithm: ecdsa-with-SHA256
    Signature Value:
        30:46:02:21:00:a8:a9:ef:bf:0d:07:6c:23:74:92:77:5c:64:
        80:ec:3d:b0:8f:10:b6:73:92:94:25:34:eb:77:f2:b3:57:7f:
        54:02:21:00:dc:ad:03:d5:2e:18:96:af:9f:68:5a:37:a8:d3:
        c7:b0:f5:3e:d3:2c:79:1c:10:79:0e:b4:54:3e:07:d0:19:70
-----BEGIN CERTIFICATE-----
MIIB+DCCAZ0CFEzOIK93DRu/SEDM9ypEG6VrKj/yMAoGCCqGSM49BAMCMIGLMQsw
CQYDVQQGEwJFUzELMAkGA1UECAwCTUExFDASBgNVBAcMC1RyZXMgQ2FudG9zMREw
DwYDVQQKDAhlUHJvc2ltYTEeMBwGA1UEAwwVZVByb3NpbWEgTWFpbiBUZXN0IENB
MSYwJAYJKoZIhvcNAQkBFhdyb3V0ZXJ0ZXN0QGVwcm9zaW1hLmNvbTAeFw0yNjA0
MTQxMzQ4MjFaFw0zNjA0MTExMzQ4MjFaMHAxCzAJBgNVBAYTAkVTMQswCQYDVQQI
DAJNQTERMA8GA1UECgwIZVByb3NpbWExGTAXBgNVBAMMEFdhblRlc3RMb2NhbFN1
YjExJjAkBgkqhkiG9w0BCQEWF3JvdXRlcnRlc3RAZXByb3NpbWEuY29tMFkwEwYH
KoZIzj0CAQYIKoZIzj0DAQcDQgAEHWkmG1sVi0rrPhBuliPRdrHEGQf7HZtZ+hQ4
NYsB0kY5KlIMYIWZscNlcOd6cPEh0+7MM7nbSHHHUtzLPFEEITAKBggqhkjOPQQD
AgNJADBGAiEAqKnvvw0HbCN0kndcZIDsPbCPELZzkpQlNOt38rNXf1QCIQDcrQPV
LhiWr59oWjeo08ew9T7TLHkcEHkOtFQ+B9AZcA==
-----END CERTIFICATE-----
