Certificate:
    Data:
        Version: 1 (0x0)
        Serial Number:
            4c:ce:20:af:77:0d:1b:bf:48:40:cc:f7:2a:44:1b:a5:6b:2a:3f:f0
        Signature Algorithm: ecdsa-with-SHA256
        Issuer: C=ES, ST=MA, L=Tres Cantos, O=eProsima, CN=eProsima Main Test CA/emailAddress=routertest@eprosima.com
        Validity
            Not Before: Apr 14 13:48:21 2026 GMT
            Not After : Apr 11 13:48:21 2036 GMT
        Subject: C=ES, ST=MA, O=eProsima, CN=WanTestLocalSub0/emailAddress=routertest@eprosima.com
        Subject Public Key Info:
            Public Key Algorithm: id-ecPublicKey
                Public-Key: (256 bit)
                pub:
                    04:1f:48:0d:3a:af:38:df:47:13:ac:68:11:d7:55:
                    f3:ed:ef:e9:f1:08:4c:7b:0a:c6:36:9e:90:a7:ee:
                    80:e8:5a:59:de:e0:ba:ba:34:56:99:b3:23:8d:ad:
                    db:54:e0:c7:31:1a:90:b8:fa:f1:2b:3c:92:50:b2:
                    03:80:17:fe:cb
                ASN1 OID: prime256v1
                NIST CURVE: P-256
    Signature Algorithm: ecdsa-with-SHA256
    Signature Value:
        30:45:02:20:12:ce:38:8b:79:e4:d9:f3:79:c5:3c:a6:b6:f1:
        16:cc:13:c7:7e:26:2d:0d:7b:e2:87:09:83:39:c6:d0:88:ad:
        02:21:00:93:41:22:8f:a6:6e:3e:a7:94:3e:5d:97:3d:78:c5:
        e4:15:b8:40:69:96:62:dd:3c:41:e6:a5:61:d5:d1:3a:5f
-----BEGIN CERTIFICATE-----
MIIB9zCCAZ0CFEzOIK93DRu/SEDM9ypEG6VrKj/wMAoGCCqGSM49BAMCMIGLMQsw
CQYDVQQGEwJFUzELMAkGA1UECAwCTUExFDASBgNVBAcMC1RyZXMgQ2FudG9zMREw
DwYDVQQKDAhlUHJvc2ltYTEeMBwGA1UEAwwVZVByb3NpbWEgTWFpbiBUZXN0IENB
MSYwJAYJKoZIhvcNAQkBFhdyb3V0ZXJ0ZXN0QGVwcm9zaW1hLmNvbTAeFw0yNjA0
MTQxMzQ4MjFaFw0zNjA0MTExMzQ4MjFaMHAxCzAJBgNVBAYTAkVTMQswCQYDVQQI
DAJNQTERMA8GA1UECgwIZVByb3NpbWExGTAXBgNVBAMMEFdhblRlc3RMb2NhbFN1
YjAxJjAkBgkqhkiG9w0BCQEWF3JvdXRlcnRlc3RAZXByb3NpbWEuY29tMFkwEwYH
KoZIzj0CAQYIKoZIzj0DAQcDQgAEH0gNOq8430cTrGgR11Xz7e/p8QhMewrGNp6Q
p+6A6FpZ3uC6ujRWmbMjja3bVODHMRqQuPrxKzySULIDgBf+yzAKBggqhkjOPQQD
AgNIADBFAiASzjiLeeTZ83nFPKa28RbME8d+Ji0Ne+KHCYM5xtCIrQIhAJNBIo+m
bj6nlD5dlz14xeQVuEBplmLdPEHmpWHV0Tpf
-----END CERTIFICATE-----
