Certificate:
    Data:
        Version: 1 (0x0)
        Serial Number:
            10:4f:0a:18:47:3a:f7:d9:05:83:53:d2:3a:c2:57:8e:ce:71:74:62
        Signature Algorithm: ecdsa-with-SHA256
        Issuer: C=ES, ST=MA, L=Tres Cantos, O=eProsima, CN=eProsima Main Test CA/emailAddress=routertest@eprosima.com
        Validity
            Not Before: Jun  5 06:51:03 2023 GMT
            Not After : Jun  2 06:51:03 2033 GMT
        Subject: C=ES, ST=MA, O=eProsima, CN=WanTestLocal1/emailAddress=routertest@eprosima.com
        Subject Public Key Info:
            Public Key Algorithm: id-ecPublicKey
                Public-Key: (256 bit)
                pub:
                    04:6d:34:bb:3d:9c:31:8c:60:ab:f8:22:88:25:5f:
                    8f:85:22:b9:42:41:62:24:c4:75:fa:f8:6a:f3:33:
                    11:29:2f:dd:6f:3a:fc:01:11:0e:fb:d6:b7:ef:e8:
                    0b:3b:98:dc:f3:45:ba:d4:00:f4:36:61:d0:bf:40:
                    e7:bc:6e:88:4c
                ASN1 OID: prime256v1
                NIST CURVE: P-256
    Signature Algorithm: ecdsa-with-SHA256
    Signature Value:
        30:45:02:20:53:dc:a0:d6:01:94:4b:2e:fe:4a:97:06:a0:e0:
        9c:6b:59:96:fb:a9:08:4d:67:1a:83:ac:ba:d4:5a:26:58:50:
        02:21:00:da:fa:a5:67:84:e3:7b:0a:66:57:d6:02:3f:ab:31:
        c9:df:70:13:49:79:72:5b:14:e7:ae:ac:0e:7f:ff:b2:ff
-----BEGIN CERTIFICATE-----
MIIB9DCCAZoCFBBPChhHOvfZBYNT0jrCV47OcXRiMAoGCCqGSM49BAMCMIGLMQsw
CQYDVQQGEwJFUzELMAkGA1UECAwCTUExFDASBgNVBAcMC1RyZXMgQ2FudG9zMREw
DwYDVQQKDAhlUHJvc2ltYTEeMBwGA1UEAwwVZVByb3NpbWEgTWFpbiBUZXN0IENB
MSYwJAYJKoZIhvcNAQkBFhdyb3V0ZXJ0ZXN0QGVwcm9zaW1hLmNvbTAeFw0yMzA2
MDUwNjUxMDNaFw0zMzA2MDIwNjUxMDNaMG0xCzAJBgNVBAYTAkVTMQswCQYDVQQI
DAJNQTERMA8GA1UECgwIZVByb3NpbWExFjAUBgNVBAMMDVdhblRlc3RMb2NhbDEx
JjAkBgkqhkiG9w0BCQEWF3JvdXRlcnRlc3RAZXByb3NpbWEuY29tMFkwEwYHKoZI
zj0CAQYIKoZIzj0DAQcDQgAEbTS7PZwxjGCr+CKIJV+PhSK5QkFiJMR1+vhq8zMR
KS/dbzr8AREO+9a37+gLO5jc80W61AD0NmHQv0DnvG6ITDAKBggqhkjOPQQDAgNI
ADBFAiBT3KDWAZRLLv5Klwag4JxrWZb7qQhNZxqDrLrUWiZYUAIhANr6pWeE43sK
ZlfWAj+rMcnfcBNJeXJbFOeurA5//7L/
-----END CERTIFICATE-----
