Certificate:
    Data:
        Version: 1 (0x0)
        Serial Number:
            05:0d:07:e5:af:0d:44:3c:98:d3:6a:b6:aa:e5:24:c1:91:0d:4e:b9
        Signature Algorithm: ecdsa-with-SHA256
        Issuer: C=ES, ST=MA, L=Tres Cantos, O=eProsima, CN=eProsima Main Test CA/emailAddress=routertest@eprosima.com
        Validity
            Not Before: Dec 26 08:08:21 2023 GMT
            Not After : Dec 23 08:08:21 2033 GMT
        Subject: C=ES, ST=MA, O=eProsima, CN=WanTestLocalSub1/emailAddress=routertest@eprosima.com
        Subject Public Key Info:
            Public Key Algorithm: id-ecPublicKey
                Public-Key: (256 bit)
                pub:
                    04:5a:e2:05:49:5a:84:f2:5c:97:cf:cc:96:a0:fa:
                    b3:89:6d:d0:30:44:1c:33:3b:6d:ce:f9:b3:38:68:
                    fc:6b:1f:32:58:b2:fe:63:98:05:c6:ed:62:71:5a:
                    e9:87:a8:f7:53:71:33:1f:e2:3e:51:eb:72:cd:3f:
                    dc:d1:90:03:84
                ASN1 OID: prime256v1
                NIST CURVE: P-256
    Signature Algorithm: ecdsa-with-SHA256
    Signature Value:
        30:44:02:20:0c:05:46:06:5d:9c:fa:f6:e2:8c:a5:fd:b8:9b:
        fe:04:46:d1:13:3f:58:7a:db:06:2b:d1:bf:d5:de:9a:6f:70:
        02:20:4e:da:c0:0a:f8:d5:52:81:b5:d8:6e:62:ac:02:d7:a8:
        62:82:b9:fb:c3:66:e0:3b:16:3c:57:bf:b4:fc:06:28
-----BEGIN CERTIFICATE-----
MIIB9jCCAZ0CFAUNB+WvDUQ8mNNqtqrlJMGRDU65MAoGCCqGSM49BAMCMIGLMQsw
CQYDVQQGEwJFUzELMAkGA1UECAwCTUExFDASBgNVBAcMC1RyZXMgQ2FudG9zMREw
DwYDVQQKDAhlUHJvc2ltYTEeMBwGA1UEAwwVZVByb3NpbWEgTWFpbiBUZXN0IENB
MSYwJAYJKoZIhvcNAQkBFhdyb3V0ZXJ0ZXN0QGVwcm9zaW1hLmNvbTAeFw0yMzEy
MjYwODA4MjFaFw0zMzEyMjMwODA4MjFaMHAxCzAJBgNVBAYTAkVTMQswCQYDVQQI
DAJNQTERMA8GA1UECgwIZVByb3NpbWExGTAXBgNVBAMMEFdhblRlc3RMb2NhbFN1
YjExJjAkBgkqhkiG9w0BCQEWF3JvdXRlcnRlc3RAZXByb3NpbWEuY29tMFkwEwYH
KoZIzj0CAQYIKoZIzj0DAQcDQgAEWuIFSVqE8lyXz8yWoPqziW3QMEQcMzttzvmz
OGj8ax8yWLL+Y5gFxu1icVrph6j3U3EzH+I+UetyzT/c0ZADhDAKBggqhkjOPQQD
AgNHADBEAiAMBUYGXZz69uKMpf24m/4ERtETP1h62wYr0b/V3ppvcAIgTtrACvjV
UoG12G5irALXqGKCufvDZuA7FjxXv7T8Big=
-----END CERTIFICATE-----
