Certificate:
    Data:
        Version: 1 (0x0)
        Serial Number:
            26:dc:b7:ee:d6:6e:13:32:9c:0a:5a:e8:0b:84:1c:36:cc:00:62:a7
        Signature Algorithm: ecdsa-with-SHA256
        Issuer: C=ES, ST=MA, L=Tres Cantos, O=eProsima, CN=eProsima Main Test CA/emailAddress=routertest@eprosima.com
        Validity
            Not Before: Dec 27 09:16:54 2023 GMT
            Not After : Dec 24 09:16:54 2033 GMT
        Subject: C=ES, ST=MA, O=eProsima, CN=WanTestLocalPub1/emailAddress=routertest@eprosima.com
        Subject Public Key Info:
            Public Key Algorithm: id-ecPublicKey
                Public-Key: (256 bit)
                pub:
                    04:5b:c8:1f:ec:81:08:05:21:a3:70:a1:90:01:16:
                    a1:2c:cc:79:00:e4:07:90:68:61:8b:14:6d:5b:3f:
                    98:fa:53:14:a5:7f:b3:f7:4d:57:29:3d:8a:a7:bf:
                    b3:4e:1f:87:6f:ce:03:78:80:68:62:96:93:cc:a1:
                    43:57:7a:98:5a
                ASN1 OID: prime256v1
                NIST CURVE: P-256
    Signature Algorithm: ecdsa-with-SHA256
    Signature Value:
        30:46:02:21:00:88:d0:65:98:65:01:f1:e9:28:a0:35:2b:b9:
        83:df:35:8e:e8:c8:86:bc:d4:cb:0e:3d:49:d1:ea:c1:11:84:
        e0:02:21:00:a7:77:75:57:5e:6d:4c:c0:60:f0:c8:12:25:da:
        c7:2b:91:df:9e:67:63:55:c2:d8:79:5a:af:54:10:7a:eb:91
-----BEGIN CERTIFICATE-----
MIIB+DCCAZ0CFCbct+7WbhMynApa6AuEHDbMAGKnMAoGCCqGSM49BAMCMIGLMQsw
CQYDVQQGEwJFUzELMAkGA1UECAwCTUExFDASBgNVBAcMC1RyZXMgQ2FudG9zMREw
DwYDVQQKDAhlUHJvc2ltYTEeMBwGA1UEAwwVZVByb3NpbWEgTWFpbiBUZXN0IENB
MSYwJAYJKoZIhvcNAQkBFhdyb3V0ZXJ0ZXN0QGVwcm9zaW1hLmNvbTAeFw0yMzEy
MjcwOTE2NTRaFw0zMzEyMjQwOTE2NTRaMHAxCzAJBgNVBAYTAkVTMQswCQYDVQQI
DAJNQTERMA8GA1UECgwIZVByb3NpbWExGTAXBgNVBAMMEFdhblRlc3RMb2NhbFB1
YjExJjAkBgkqhkiG9w0BCQEWF3JvdXRlcnRlc3RAZXByb3NpbWEuY29tMFkwEwYH
KoZIzj0CAQYIKoZIzj0DAQcDQgAEW8gf7IEIBSGjcKGQARahLMx5AOQHkGhhixRt
Wz+Y+lMUpX+z901XKT2Kp7+zTh+Hb84DeIBoYpaTzKFDV3qYWjAKBggqhkjOPQQD
AgNJADBGAiEAiNBlmGUB8ekooDUruYPfNY7oyIa81MsOPUnR6sERhOACIQCnd3VX
Xm1MwGDwyBIl2scrkd+eZ2NVwth5Wq9UEHrrkQ==
-----END CERTIFICATE-----
