Certificate:
    Data:
        Version: 1 (0x0)
        Serial Number:
            10:4f:0a:18:47:3a:f7:d9:05:83:53:d2:3a:c2:57:8e:ce:71:74:61
        Signature Algorithm: ecdsa-with-SHA256
        Issuer: C=ES, ST=MA, L=Tres Cantos, O=eProsima, CN=eProsima Main Test CA/emailAddress=routertest@eprosima.com
        Validity
            Not Before: Jun  5 06:51:03 2023 GMT
            Not After : Jun  2 06:51:03 2033 GMT
        Subject: C=ES, ST=MA, O=eProsima, CN=WanTestLocal0/emailAddress=routertest@eprosima.com
        Subject Public Key Info:
            Public Key Algorithm: id-ecPublicKey
                Public-Key: (256 bit)
                pub:
                    04:69:9b:4a:b2:5b:40:90:74:24:49:75:1c:8e:62:
                    88:55:eb:45:1f:2a:5e:ab:7b:cd:c4:3d:ea:9c:7e:
                    ca:77:78:44:6d:97:fc:1c:5c:e7:c6:50:8b:15:78:
                    bb:ec:68:21:39:2e:71:64:26:a2:12:da:f4:79:f9:
                    71:4b:cb:14:7b
                ASN1 OID: prime256v1
                NIST CURVE: P-256
    Signature Algorithm: ecdsa-with-SHA256
    Signature Value:
        30:45:02:21:00:a2:44:2d:b1:2c:62:f3:6e:c9:61:be:1d:0b:
        fb:72:a0:3e:de:4b:4e:34:cc:ba:ef:84:cd:45:87:dd:d5:9f:
        4b:02:20:79:4b:da:33:ef:6c:a9:9e:e6:c5:cb:30:47:61:67:
        72:02:4f:34:2a:06:f3:3e:10:1a:d9:2a:92:8e:2b:bb:c3
-----BEGIN CERTIFICATE-----
MIIB9DCCAZoCFBBPChhHOvfZBYNT0jrCV47OcXRhMAoGCCqGSM49BAMCMIGLMQsw
CQYDVQQGEwJFUzELMAkGA1UECAwCTUExFDASBgNVBAcMC1RyZXMgQ2FudG9zMREw
DwYDVQQKDAhlUHJvc2ltYTEeMBwGA1UEAwwVZVByb3NpbWEgTWFpbiBUZXN0IENB
MSYwJAYJKoZIhvcNAQkBFhdyb3V0ZXJ0ZXN0QGVwcm9zaW1hLmNvbTAeFw0yMzA2
MDUwNjUxMDNaFw0zMzA2MDIwNjUxMDNaMG0xCzAJBgNVBAYTAkVTMQswCQYDVQQI
DAJNQTERMA8GA1UECgwIZVByb3NpbWExFjAUBgNVBAMMDVdhblRlc3RMb2NhbDAx
JjAkBgkqhkiG9w0BCQEWF3JvdXRlcnRlc3RAZXByb3NpbWEuY29tMFkwEwYHKoZI
zj0CAQYIKoZIzj0DAQcDQgAEaZtKsltAkHQkSXUcjmKIVetFHypeq3vNxD3qnH7K
d3hEbZf8HFznxlCLFXi77GghOS5xZCaiEtr0eflxS8sUezAKBggqhkjOPQQDAgNI
ADBFAiEAokQtsSxi827JYb4dC/tyoD7eS040zLrvhM1Fh93Vn0sCIHlL2jPvbKme
5sXLMEdhZ3ICTzQqBvM+EBrZKpKOK7vD
-----END CERTIFICATE-----
