Certificate:
    Data:
        Version: 1 (0x0)
        Serial Number:
            26:f6:c3:f2:86:65:b8:0e:aa:6e:59:52:50:88:58:70:14:f2:09:71
        Signature Algorithm: ecdsa-with-SHA256
        Issuer: C=ES, ST=MA, L=Tres Cantos, O=eProsima, CN=eProsima Main Test CA/emailAddress=routertest@eprosima.com
        Validity
            Not Before: Mar 24 10:33:23 2025 GMT
            Not After : Mar 22 10:33:23 2035 GMT
        Subject: C=ES, ST=MA, O=eProsima, CN=WanTestLocalPub1/emailAddress=routertest@eprosima.com
        Subject Public Key Info:
            Public Key Algorithm: id-ecPublicKey
                Public-Key: (256 bit)
                pub:
                    04:20:93:15:60:9c:27:a3:2c:23:77:9e:97:cd:8e:
                    3b:71:9d:40:8e:5a:f3:08:38:50:96:37:4d:a3:ba:
                    c9:96:66:d7:cf:50:b2:56:29:04:5f:2f:64:4c:1d:
                    da:3b:1c:e4:d9:06:e6:14:d0:ad:a3:43:52:b8:13:
                    ce:c9:4a:b6:31
                ASN1 OID: prime256v1
                NIST CURVE: P-256
    Signature Algorithm: ecdsa-with-SHA256
    Signature Value:
        30:46:02:21:00:a7:ac:4d:89:6f:97:7d:70:5a:02:96:80:27:
        17:e6:1c:28:71:39:6a:60:93:77:c0:d4:96:82:8e:c9:d0:b1:
        41:02:21:00:d3:f3:90:a0:2e:be:b0:45:3d:31:a6:54:38:b5:
        1c:f9:83:11:5e:cb:ac:c7:57:c9:48:b4:48:e9:80:4b:ba:9a
-----BEGIN CERTIFICATE-----
MIIB+DCCAZ0CFCb2w/KGZbgOqm5ZUlCIWHAU8glxMAoGCCqGSM49BAMCMIGLMQsw
CQYDVQQGEwJFUzELMAkGA1UECAwCTUExFDASBgNVBAcMC1RyZXMgQ2FudG9zMREw
DwYDVQQKDAhlUHJvc2ltYTEeMBwGA1UEAwwVZVByb3NpbWEgTWFpbiBUZXN0IENB
MSYwJAYJKoZIhvcNAQkBFhdyb3V0ZXJ0ZXN0QGVwcm9zaW1hLmNvbTAeFw0yNTAz
MjQxMDMzMjNaFw0zNTAzMjIxMDMzMjNaMHAxCzAJBgNVBAYTAkVTMQswCQYDVQQI
DAJNQTERMA8GA1UECgwIZVByb3NpbWExGTAXBgNVBAMMEFdhblRlc3RMb2NhbFB1
YjExJjAkBgkqhkiG9w0BCQEWF3JvdXRlcnRlc3RAZXByb3NpbWEuY29tMFkwEwYH
KoZIzj0CAQYIKoZIzj0DAQcDQgAEIJMVYJwnoywjd56XzY47cZ1AjlrzCDhQljdN
o7rJlmbXz1CyVikEXy9kTB3aOxzk2QbmFNCto0NSuBPOyUq2MTAKBggqhkjOPQQD
AgNJADBGAiEAp6xNiW+XfXBaApaAJxfmHChxOWpgk3fA1JaCjsnQsUECIQDT85Cg
Lr6wRT0xplQ4tRz5gxFey6zHV8lItEjpgEu6mg==
-----END CERTIFICATE-----
