Certificate:
    Data:
        Version: 1 (0x0)
        Serial Number:
            10:4f:0a:18:47:3a:f7:d9:05:83:53:d2:3a:c2:57:8e:ce:71:74:55
        Signature Algorithm: ecdsa-with-SHA256
        Issuer: C=ES, ST=MA, L=Tres Cantos, O=eProsima, CN=eProsima Main Test CA/emailAddress=routertest@eprosima.com
        Validity
            Not Before: Jun  2 09:58:20 2023 GMT
            Not After : May 30 09:58:20 2033 GMT
        Subject: C=ES, ST=MA, O=eProsima, CN=BackdoorTestLocal/emailAddress=routertest@eprosima.com
        Subject Public Key Info:
            Public Key Algorithm: id-ecPublicKey
                Public-Key: (256 bit)
                pub:
                    04:15:b4:f9:f9:ed:25:31:f3:00:9d:20:19:7c:65:
                    f9:e4:b0:95:6f:c6:ec:6a:32:d7:ff:ec:45:b9:6b:
                    75:56:27:54:21:22:18:d5:b9:bd:de:79:9b:3d:70:
                    27:36:8c:00:46:89:10:06:38:79:58:ad:8c:14:7e:
                    a0:22:99:57:5e
                ASN1 OID: prime256v1
                NIST CURVE: P-256
    Signature Algorithm: ecdsa-with-SHA256
    Signature Value:
        30:44:02:20:6d:ef:35:da:47:a8:40:ff:66:b4:b8:87:21:1a:
        cb:b5:76:08:17:2f:c8:d4:f5:ff:3a:75:37:ba:04:21:62:19:
        02:20:4a:7c:a4:9f:2b:ab:67:75:4d:34:61:48:1e:43:77:f8:
        46:0e:a5:ac:f1:97:76:75:96:e3:85:30:9a:dc:c0:5e
-----BEGIN CERTIFICATE-----
MIIB9zCCAZ4CFBBPChhHOvfZBYNT0jrCV47OcXRVMAoGCCqGSM49BAMCMIGLMQsw
CQYDVQQGEwJFUzELMAkGA1UECAwCTUExFDASBgNVBAcMC1RyZXMgQ2FudG9zMREw
DwYDVQQKDAhlUHJvc2ltYTEeMBwGA1UEAwwVZVByb3NpbWEgTWFpbiBUZXN0IENB
MSYwJAYJKoZIhvcNAQkBFhdyb3V0ZXJ0ZXN0QGVwcm9zaW1hLmNvbTAeFw0yMzA2
MDIwOTU4MjBaFw0zMzA1MzAwOTU4MjBaMHExCzAJBgNVBAYTAkVTMQswCQYDVQQI
DAJNQTERMA8GA1UECgwIZVByb3NpbWExGjAYBgNVBAMMEUJhY2tkb29yVGVzdExv
Y2FsMSYwJAYJKoZIhvcNAQkBFhdyb3V0ZXJ0ZXN0QGVwcm9zaW1hLmNvbTBZMBMG
ByqGSM49AgEGCCqGSM49AwEHA0IABBW0+fntJTHzAJ0gGXxl+eSwlW/G7Goy1//s
RblrdVYnVCEiGNW5vd55mz1wJzaMAEaJEAY4eVitjBR+oCKZV14wCgYIKoZIzj0E
AwIDRwAwRAIgbe812keoQP9mtLiHIRrLtXYIFy/I1PX/OnU3ugQhYhkCIEp8pJ8r
q2d1TTRhSB5Dd/hGDqWs8Zd2dZbjhTCa3MBe
-----END CERTIFICATE-----
