Certificate:
    Data:
        Version: 1 (0x0)
        Serial Number:
            26:dc:b7:ee:d6:6e:13:32:9c:0a:5a:e8:0b:84:1c:36:cc:00:62:a8
        Signature Algorithm: ecdsa-with-SHA256
        Issuer: C=ES, ST=MA, L=Tres Cantos, O=eProsima, CN=eProsima Main Test CA/emailAddress=routertest@eprosima.com
        Validity
            Not Before: Dec 27 09:16:54 2023 GMT
            Not After : Dec 24 09:16:54 2033 GMT
        Subject: C=ES, ST=MA, O=eProsima, CN=WanTestLocalSub1/emailAddress=routertest@eprosima.com
        Subject Public Key Info:
            Public Key Algorithm: id-ecPublicKey
                Public-Key: (256 bit)
                pub:
                    04:f8:96:12:45:3a:b6:30:83:ac:5f:5d:56:99:a8:
                    12:5c:d0:e2:88:e7:2b:b7:1e:cf:87:4b:40:5f:ff:
                    62:86:58:89:5a:e2:ab:fc:98:83:4f:50:3e:32:a1:
                    15:40:dc:e6:32:24:66:7d:9f:1b:30:77:c9:b7:db:
                    7d:92:a1:eb:6c
                ASN1 OID: prime256v1
                NIST CURVE: P-256
    Signature Algorithm: ecdsa-with-SHA256
    Signature Value:
        30:45:02:21:00:b0:27:aa:c5:ac:a0:e1:c4:b0:4d:94:ba:2c:
        af:ce:35:a8:f8:ac:fc:0e:65:2c:42:30:97:47:a4:01:30:21:
        7a:02:20:1d:8a:c4:68:3a:d6:7e:91:da:5e:bd:a5:d6:51:e1:
        5f:2c:dc:0c:7c:79:d5:f4:ed:80:54:ff:f2:be:64:87:63
-----BEGIN CERTIFICATE-----
MIIB9zCCAZ0CFCbct+7WbhMynApa6AuEHDbMAGKoMAoGCCqGSM49BAMCMIGLMQsw
CQYDVQQGEwJFUzELMAkGA1UECAwCTUExFDASBgNVBAcMC1RyZXMgQ2FudG9zMREw
DwYDVQQKDAhlUHJvc2ltYTEeMBwGA1UEAwwVZVByb3NpbWEgTWFpbiBUZXN0IENB
MSYwJAYJKoZIhvcNAQkBFhdyb3V0ZXJ0ZXN0QGVwcm9zaW1hLmNvbTAeFw0yMzEy
MjcwOTE2NTRaFw0zMzEyMjQwOTE2NTRaMHAxCzAJBgNVBAYTAkVTMQswCQYDVQQI
DAJNQTERMA8GA1UECgwIZVByb3NpbWExGTAXBgNVBAMMEFdhblRlc3RMb2NhbFN1
YjExJjAkBgkqhkiG9w0BCQEWF3JvdXRlcnRlc3RAZXByb3NpbWEuY29tMFkwEwYH
KoZIzj0CAQYIKoZIzj0DAQcDQgAE+JYSRTq2MIOsX11WmagSXNDiiOcrtx7Ph0tA
X/9ihliJWuKr/JiDT1A+MqEVQNzmMiRmfZ8bMHfJt9t9kqHrbDAKBggqhkjOPQQD
AgNIADBFAiEAsCeqxayg4cSwTZS6LK/ONaj4rPwOZSxCMJdHpAEwIXoCIB2KxGg6
1n6R2l69pdZR4V8s3Ax8edX07YBU//K+ZIdj
-----END CERTIFICATE-----
