Certificate:
    Data:
        Version: 1 (0x0)
        Serial Number:
            26:f6:c3:f2:86:65:b8:0e:aa:6e:59:52:50:88:58:70:14:f2:09:6f
        Signature Algorithm: ecdsa-with-SHA256
        Issuer: C=ES, ST=MA, L=Tres Cantos, O=eProsima, CN=eProsima Main Test CA/emailAddress=routertest@eprosima.com
        Validity
            Not Before: Mar 24 10:33:23 2025 GMT
            Not After : Mar 22 10:33:23 2035 GMT
        Subject: C=ES, ST=MA, O=eProsima, CN=WanTestLocalPub0/emailAddress=routertest@eprosima.com
        Subject Public Key Info:
            Public Key Algorithm: id-ecPublicKey
                Public-Key: (256 bit)
                pub:
                    04:dc:ff:fe:23:3d:56:95:20:b9:d1:8c:aa:30:5d:
                    a2:11:49:a1:78:bd:d5:54:03:1c:63:93:30:44:b5:
                    ba:fc:c9:3a:84:3b:b3:02:bc:ae:6e:05:7b:34:82:
                    e0:e2:f7:23:4b:58:eb:c7:e8:93:84:b6:f3:33:ff:
                    75:a7:3a:f5:69
                ASN1 OID: prime256v1
                NIST CURVE: P-256
    Signature Algorithm: ecdsa-with-SHA256
    Signature Value:
        30:45:02:21:00:a5:54:20:eb:bf:8f:71:ff:1f:b7:0c:22:c3:
        d4:12:21:ab:cd:04:01:88:91:51:80:2c:db:44:7e:52:11:77:
        72:02:20:50:f5:13:2f:1f:f3:43:a0:f7:63:a3:60:18:d7:78:
        b8:9c:c4:f6:c9:5c:a8:a9:0f:3f:e5:61:29:b2:bc:68:b5
-----BEGIN CERTIFICATE-----
MIIB9zCCAZ0CFCb2w/KGZbgOqm5ZUlCIWHAU8glvMAoGCCqGSM49BAMCMIGLMQsw
CQYDVQQGEwJFUzELMAkGA1UECAwCTUExFDASBgNVBAcMC1RyZXMgQ2FudG9zMREw
DwYDVQQKDAhlUHJvc2ltYTEeMBwGA1UEAwwVZVByb3NpbWEgTWFpbiBUZXN0IENB
MSYwJAYJKoZIhvcNAQkBFhdyb3V0ZXJ0ZXN0QGVwcm9zaW1hLmNvbTAeFw0yNTAz
MjQxMDMzMjNaFw0zNTAzMjIxMDMzMjNaMHAxCzAJBgNVBAYTAkVTMQswCQYDVQQI
DAJNQTERMA8GA1UECgwIZVByb3NpbWExGTAXBgNVBAMMEFdhblRlc3RMb2NhbFB1
YjAxJjAkBgkqhkiG9w0BCQEWF3JvdXRlcnRlc3RAZXByb3NpbWEuY29tMFkwEwYH
KoZIzj0CAQYIKoZIzj0DAQcDQgAE3P/+Iz1WlSC50YyqMF2iEUmheL3VVAMcY5Mw
RLW6/Mk6hDuzAryubgV7NILg4vcjS1jrx+iThLbzM/91pzr1aTAKBggqhkjOPQQD
AgNIADBFAiEApVQg67+Pcf8ftwwiw9QSIavNBAGIkVGALNtEflIRd3ICIFD1Ey8f
80Og92OjYBjXeLicxPbJXKipDz/lYSmyvGi1
-----END CERTIFICATE-----
