Certificate:
    Data:
        Version: 1 (0x0)
        Serial Number:
            05:0d:07:e5:af:0d:44:3c:98:d3:6a:b6:aa:e5:24:c1:91:0d:4e:b8
        Signature Algorithm: ecdsa-with-SHA256
        Issuer: C=ES, ST=MA, L=Tres Cantos, O=eProsima, CN=eProsima Main Test CA/emailAddress=routertest@eprosima.com
        Validity
            Not Before: Dec 26 08:08:21 2023 GMT
            Not After : Dec 23 08:08:21 2033 GMT
        Subject: C=ES, ST=MA, O=eProsima, CN=WanTestLocalPub1/emailAddress=routertest@eprosima.com
        Subject Public Key Info:
            Public Key Algorithm: id-ecPublicKey
                Public-Key: (256 bit)
                pub:
                    04:30:07:1e:0b:d9:3e:95:f2:cb:f8:42:89:59:33:
                    6c:b8:54:47:44:ff:1d:bf:88:ab:34:85:e3:3d:7c:
                    b6:fb:38:a7:bd:5f:c4:db:a9:57:72:06:c3:db:c3:
                    9c:e1:e2:ee:2e:1c:a0:0a:b1:f6:5b:60:43:d7:14:
                    75:d0:6c:d1:19
                ASN1 OID: prime256v1
                NIST CURVE: P-256
    Signature Algorithm: ecdsa-with-SHA256
    Signature Value:
        30:45:02:20:56:9f:b4:9a:72:50:65:68:96:22:56:d1:4c:fc:
        f1:fe:42:a4:6b:3c:a7:de:74:f8:96:7f:68:df:d7:7d:f3:29:
        02:21:00:d6:64:9f:f6:73:90:40:0c:73:e7:61:99:b4:db:8f:
        26:57:93:e5:e6:10:9d:78:e9:8a:12:33:e9:11:5c:23:99
-----BEGIN CERTIFICATE-----
MIIB9zCCAZ0CFAUNB+WvDUQ8mNNqtqrlJMGRDU64MAoGCCqGSM49BAMCMIGLMQsw
CQYDVQQGEwJFUzELMAkGA1UECAwCTUExFDASBgNVBAcMC1RyZXMgQ2FudG9zMREw
DwYDVQQKDAhlUHJvc2ltYTEeMBwGA1UEAwwVZVByb3NpbWEgTWFpbiBUZXN0IENB
MSYwJAYJKoZIhvcNAQkBFhdyb3V0ZXJ0ZXN0QGVwcm9zaW1hLmNvbTAeFw0yMzEy
MjYwODA4MjFaFw0zMzEyMjMwODA4MjFaMHAxCzAJBgNVBAYTAkVTMQswCQYDVQQI
DAJNQTERMA8GA1UECgwIZVByb3NpbWExGTAXBgNVBAMMEFdhblRlc3RMb2NhbFB1
YjExJjAkBgkqhkiG9w0BCQEWF3JvdXRlcnRlc3RAZXByb3NpbWEuY29tMFkwEwYH
KoZIzj0CAQYIKoZIzj0DAQcDQgAEMAceC9k+lfLL+EKJWTNsuFRHRP8dv4irNIXj
PXy2+zinvV/E26lXcgbD28Oc4eLuLhygCrH2W2BD1xR10GzRGTAKBggqhkjOPQQD
AgNIADBFAiBWn7SaclBlaJYiVtFM/PH+QqRrPKfedPiWf2jf133zKQIhANZkn/Zz
kEAMc+dhmbTbjyZXk+XmEJ146YoSM+kRXCOZ
-----END CERTIFICATE-----
