Certificate:
    Data:
        Version: 1 (0x0)
        Serial Number:
            26:f6:c3:f2:86:65:b8:0e:aa:6e:59:52:50:88:58:70:14:f2:09:72
        Signature Algorithm: ecdsa-with-SHA256
        Issuer: C=ES, ST=MA, L=Tres Cantos, O=eProsima, CN=eProsima Main Test CA/emailAddress=routertest@eprosima.com
        Validity
            Not Before: Mar 24 10:33:23 2025 GMT
            Not After : Mar 22 10:33:23 2035 GMT
        Subject: C=ES, ST=MA, O=eProsima, CN=WanTestLocalSub1/emailAddress=routertest@eprosima.com
        Subject Public Key Info:
            Public Key Algorithm: id-ecPublicKey
                Public-Key: (256 bit)
                pub:
                    04:37:1b:29:e5:fd:f3:22:27:17:69:f1:18:a7:b2:
                    8b:56:6b:65:88:f8:7a:c9:05:13:2b:7d:ce:0f:2b:
                    bb:72:22:78:1d:1b:a2:f8:68:c0:ec:61:8a:12:90:
                    33:c1:6c:c8:5c:1a:24:8a:80:56:55:b5:9a:74:db:
                    78:2d:24:c7:cd
                ASN1 OID: prime256v1
                NIST CURVE: P-256
    Signature Algorithm: ecdsa-with-SHA256
    Signature Value:
        30:45:02:21:00:8b:77:51:09:fd:93:d5:71:38:c2:5a:04:be:
        a8:92:f5:20:a2:7b:ec:3b:a5:11:f0:ed:78:70:42:c4:85:24:
        e1:02:20:0a:69:54:99:90:60:76:cc:89:b8:e7:f9:04:b7:55:
        9b:8c:a4:83:38:2c:d9:79:b4:28:6b:52:e7:1f:0b:a4:2e
-----BEGIN CERTIFICATE-----
MIIB9zCCAZ0CFCb2w/KGZbgOqm5ZUlCIWHAU8glyMAoGCCqGSM49BAMCMIGLMQsw
CQYDVQQGEwJFUzELMAkGA1UECAwCTUExFDASBgNVBAcMC1RyZXMgQ2FudG9zMREw
DwYDVQQKDAhlUHJvc2ltYTEeMBwGA1UEAwwVZVByb3NpbWEgTWFpbiBUZXN0IENB
MSYwJAYJKoZIhvcNAQkBFhdyb3V0ZXJ0ZXN0QGVwcm9zaW1hLmNvbTAeFw0yNTAz
MjQxMDMzMjNaFw0zNTAzMjIxMDMzMjNaMHAxCzAJBgNVBAYTAkVTMQswCQYDVQQI
DAJNQTERMA8GA1UECgwIZVByb3NpbWExGTAXBgNVBAMMEFdhblRlc3RMb2NhbFN1
YjExJjAkBgkqhkiG9w0BCQEWF3JvdXRlcnRlc3RAZXByb3NpbWEuY29tMFkwEwYH
KoZIzj0CAQYIKoZIzj0DAQcDQgAENxsp5f3zIicXafEYp7KLVmtliPh6yQUTK33O
Dyu7ciJ4HRui+GjA7GGKEpAzwWzIXBokioBWVbWadNt4LSTHzTAKBggqhkjOPQQD
AgNIADBFAiEAi3dRCf2T1XE4wloEvqiS9SCie+w7pRHw7XhwQsSFJOECIAppVJmQ
YHbMibjn+QS3VZuMpIM4LNl5tChrUucfC6Qu
-----END CERTIFICATE-----
