Certificate:
    Data:
        Version: 1 (0x0)
        Serial Number:
            26:dc:b7:ee:d6:6e:13:32:9c:0a:5a:e8:0b:84:1c:36:cc:00:62:a9
        Signature Algorithm: ecdsa-with-SHA256
        Issuer: C=ES, ST=MA, L=Tres Cantos, O=eProsima, CN=eProsima Main Test CA/emailAddress=routertest@eprosima.com
        Validity
            Not Before: Dec 27 09:16:54 2023 GMT
            Not After : Dec 24 09:16:54 2033 GMT
        Subject: C=ES, ST=MA, O=eProsima, CN=WanTestRouterLocal0/emailAddress=routertest@eprosima.com
        Subject Public Key Info:
            Public Key Algorithm: id-ecPublicKey
                Public-Key: (256 bit)
                pub:
                    04:38:60:92:cc:90:74:95:9e:17:09:f8:52:af:bc:
                    04:c2:c2:4a:b3:06:33:c0:7c:4c:64:d1:bb:a2:6d:
                    0c:fa:7b:1b:a5:0b:b7:55:fa:3d:d6:0f:bd:23:93:
                    79:90:89:ae:6c:e5:09:c1:e7:a4:e7:ce:be:c7:58:
                    e4:1c:09:37:c7
                ASN1 OID: prime256v1
                NIST CURVE: P-256
    Signature Algorithm: ecdsa-with-SHA256
    Signature Value:
        30:46:02:21:00:a9:51:26:95:2f:3d:8c:2f:d9:73:46:10:1c:
        2c:3c:37:0c:d4:00:7b:6b:f6:3f:42:28:f1:9a:77:07:a9:db:
        6f:02:21:00:8a:da:c6:13:a2:53:2f:36:46:c3:fb:d3:17:60:
        17:20:4e:3f:af:76:ee:16:55:c1:f0:30:fa:3f:b9:33:79:00
-----BEGIN CERTIFICATE-----
MIIB+zCCAaACFCbct+7WbhMynApa6AuEHDbMAGKpMAoGCCqGSM49BAMCMIGLMQsw
CQYDVQQGEwJFUzELMAkGA1UECAwCTUExFDASBgNVBAcMC1RyZXMgQ2FudG9zMREw
DwYDVQQKDAhlUHJvc2ltYTEeMBwGA1UEAwwVZVByb3NpbWEgTWFpbiBUZXN0IENB
MSYwJAYJKoZIhvcNAQkBFhdyb3V0ZXJ0ZXN0QGVwcm9zaW1hLmNvbTAeFw0yMzEy
MjcwOTE2NTRaFw0zMzEyMjQwOTE2NTRaMHMxCzAJBgNVBAYTAkVTMQswCQYDVQQI
DAJNQTERMA8GA1UECgwIZVByb3NpbWExHDAaBgNVBAMME1dhblRlc3RSb3V0ZXJM
b2NhbDAxJjAkBgkqhkiG9w0BCQEWF3JvdXRlcnRlc3RAZXByb3NpbWEuY29tMFkw
EwYHKoZIzj0CAQYIKoZIzj0DAQcDQgAEOGCSzJB0lZ4XCfhSr7wEwsJKswYzwHxM
ZNG7om0M+nsbpQu3Vfo91g+9I5N5kImubOUJweek586+x1jkHAk3xzAKBggqhkjO
PQQDAgNJADBGAiEAqVEmlS89jC/Zc0YQHCw8NwzUAHtr9j9CKPGadwep228CIQCK
2sYTolMvNkbD+9MXYBcgTj+vdu4WVcHwMPo/uTN5AA==
-----END CERTIFICATE-----
