Certificate:
    Data:
        Version: 1 (0x0)
        Serial Number:
            4c:ce:20:af:77:0d:1b:bf:48:40:cc:f7:2a:44:1b:a5:6b:2a:3f:f4
        Signature Algorithm: ecdsa-with-SHA256
        Issuer: C=ES, ST=MA, L=Tres Cantos, O=eProsima, CN=eProsima Main Test CA/emailAddress=routertest@eprosima.com
        Validity
            Not Before: Apr 14 13:48:22 2026 GMT
            Not After : Apr 11 13:48:22 2036 GMT
        Subject: C=ES, ST=MA, O=eProsima, CN=WanTestRouterLocal1/emailAddress=routertest@eprosima.com
        Subject Public Key Info:
            Public Key Algorithm: id-ecPublicKey
                Public-Key: (256 bit)
                pub:
                    04:30:3b:1e:42:7f:0f:ac:d3:27:ea:2c:56:43:92:
                    c2:8d:ef:31:91:c1:c8:7a:1b:ba:90:5d:e3:dd:4f:
                    f6:23:b9:ff:2d:ec:b9:39:07:b2:07:db:f0:08:b2:
                    94:d4:a2:37:16:6e:f5:76:b8:ba:f4:7e:26:89:7d:
                    db:95:27:e9:10
                ASN1 OID: prime256v1
                NIST CURVE: P-256
    Signature Algorithm: ecdsa-with-SHA256
    Signature Value:
        30:45:02:20:39:94:51:4a:44:c6:75:4d:d1:0c:1d:6f:a6:0a:
        77:f8:56:a8:d0:e0:52:8a:8e:9b:ad:ed:0d:0b:69:15:11:ff:
        02:21:00:a7:42:da:d8:c9:78:2d:72:02:e3:15:f3:97:d6:30:
        b6:56:ba:a1:cf:92:a7:19:63:65:c8:44:0e:70:5e:56:8f
-----BEGIN CERTIFICATE-----
MIIB+jCCAaACFEzOIK93DRu/SEDM9ypEG6VrKj/0MAoGCCqGSM49BAMCMIGLMQsw
CQYDVQQGEwJFUzELMAkGA1UECAwCTUExFDASBgNVBAcMC1RyZXMgQ2FudG9zMREw
DwYDVQQKDAhlUHJvc2ltYTEeMBwGA1UEAwwVZVByb3NpbWEgTWFpbiBUZXN0IENB
MSYwJAYJKoZIhvcNAQkBFhdyb3V0ZXJ0ZXN0QGVwcm9zaW1hLmNvbTAeFw0yNjA0
MTQxMzQ4MjJaFw0zNjA0MTExMzQ4MjJaMHMxCzAJBgNVBAYTAkVTMQswCQYDVQQI
DAJNQTERMA8GA1UECgwIZVByb3NpbWExHDAaBgNVBAMME1dhblRlc3RSb3V0ZXJM
b2NhbDExJjAkBgkqhkiG9w0BCQEWF3JvdXRlcnRlc3RAZXByb3NpbWEuY29tMFkw
EwYHKoZIzj0CAQYIKoZIzj0DAQcDQgAEMDseQn8PrNMn6ixWQ5LCje8xkcHIehu6
kF3j3U/2I7n/Ley5OQeyB9vwCLKU1KI3Fm71dri69H4miX3blSfpEDAKBggqhkjO
PQQDAgNIADBFAiA5lFFKRMZ1TdEMHW+mCnf4VqjQ4FKKjput7Q0LaRUR/wIhAKdC
2tjJeC1yAuMV85fWMLZWuqHPkqcZY2XIRA5wXlaP
-----END CERTIFICATE-----
