Certificate:
    Data:
        Version: 1 (0x0)
        Serial Number:
            26:f6:c3:f2:86:65:b8:0e:aa:6e:59:52:50:88:58:70:14:f2:09:73
        Signature Algorithm: ecdsa-with-SHA256
        Issuer: C=ES, ST=MA, L=Tres Cantos, O=eProsima, CN=eProsima Main Test CA/emailAddress=routertest@eprosima.com
        Validity
            Not Before: Mar 24 10:33:23 2025 GMT
            Not After : Mar 22 10:33:23 2035 GMT
        Subject: C=ES, ST=MA, O=eProsima, CN=WanTestRouterLocal0/emailAddress=routertest@eprosima.com
        Subject Public Key Info:
            Public Key Algorithm: id-ecPublicKey
                Public-Key: (256 bit)
                pub:
                    04:d9:11:e4:09:cb:fd:1c:64:36:59:e7:b6:01:49:
                    f3:c9:be:e7:76:6c:45:9c:c7:6f:77:8c:bb:53:9b:
                    b9:d9:4a:39:b8:ce:f4:ae:e0:5c:81:1c:e3:3b:10:
                    7c:b4:99:d4:52:45:7b:6c:6f:b4:1b:62:1d:25:76:
                    59:25:f7:ce:07
                ASN1 OID: prime256v1
                NIST CURVE: P-256
    Signature Algorithm: ecdsa-with-SHA256
    Signature Value:
        30:45:02:20:31:1f:ca:f0:dd:ee:ff:e1:45:8c:2b:bf:b6:7d:
        71:e7:1f:20:72:9f:f5:d7:e2:29:7a:0f:eb:8b:08:5d:ca:f1:
        02:21:00:82:9c:7b:c5:ac:fa:b4:a6:fa:cd:77:be:61:49:f9:
        e9:a4:c1:63:47:8f:09:34:6e:8f:2d:92:d8:ac:86:5d:27
-----BEGIN CERTIFICATE-----
MIIB+jCCAaACFCb2w/KGZbgOqm5ZUlCIWHAU8glzMAoGCCqGSM49BAMCMIGLMQsw
CQYDVQQGEwJFUzELMAkGA1UECAwCTUExFDASBgNVBAcMC1RyZXMgQ2FudG9zMREw
DwYDVQQKDAhlUHJvc2ltYTEeMBwGA1UEAwwVZVByb3NpbWEgTWFpbiBUZXN0IENB
MSYwJAYJKoZIhvcNAQkBFhdyb3V0ZXJ0ZXN0QGVwcm9zaW1hLmNvbTAeFw0yNTAz
MjQxMDMzMjNaFw0zNTAzMjIxMDMzMjNaMHMxCzAJBgNVBAYTAkVTMQswCQYDVQQI
DAJNQTERMA8GA1UECgwIZVByb3NpbWExHDAaBgNVBAMME1dhblRlc3RSb3V0ZXJM
b2NhbDAxJjAkBgkqhkiG9w0BCQEWF3JvdXRlcnRlc3RAZXByb3NpbWEuY29tMFkw
EwYHKoZIzj0CAQYIKoZIzj0DAQcDQgAE2RHkCcv9HGQ2Wee2AUnzyb7ndmxFnMdv
d4y7U5u52Uo5uM70ruBcgRzjOxB8tJnUUkV7bG+0G2IdJXZZJffOBzAKBggqhkjO
PQQDAgNIADBFAiAxH8rw3e7/4UWMK7+2fXHnHyByn/XX4il6D+uLCF3K8QIhAIKc
e8Ws+rSm+s13vmFJ+emkwWNHjwk0bo8tktishl0n
-----END CERTIFICATE-----
