Certificate:
    Data:
        Version: 1 (0x0)
        Serial Number:
            26:f6:c3:f2:86:65:b8:0e:aa:6e:59:52:50:88:58:70:14:f2:09:74
        Signature Algorithm: ecdsa-with-SHA256
        Issuer: C=ES, ST=MA, L=Tres Cantos, O=eProsima, CN=eProsima Main Test CA/emailAddress=routertest@eprosima.com
        Validity
            Not Before: Mar 24 10:33:23 2025 GMT
            Not After : Mar 22 10:33:23 2035 GMT
        Subject: C=ES, ST=MA, O=eProsima, CN=WanTestRouterLocal1/emailAddress=routertest@eprosima.com
        Subject Public Key Info:
            Public Key Algorithm: id-ecPublicKey
                Public-Key: (256 bit)
                pub:
                    04:6e:4d:db:d5:b0:b8:61:7f:50:be:ab:d1:31:96:
                    b2:c7:dd:98:f1:93:f9:7c:c6:77:c8:e6:d2:42:dc:
                    3b:7e:d8:4a:5c:8f:6f:d4:69:c7:75:2a:e8:6b:74:
                    a9:25:93:1a:a4:41:e3:d0:52:6b:19:a5:3b:fa:67:
                    09:4e:d2:be:79
                ASN1 OID: prime256v1
                NIST CURVE: P-256
    Signature Algorithm: ecdsa-with-SHA256
    Signature Value:
        30:44:02:20:6e:6b:8f:ae:c6:7a:b8:8b:12:7f:d3:47:54:87:
        00:c2:9e:bc:e1:31:24:46:c9:26:de:d0:b1:de:c4:ce:c5:07:
        02:20:0d:76:92:9b:13:1a:86:07:ff:3b:79:2d:47:a4:e1:46:
        c5:74:8c:0b:a8:00:14:a0:05:53:a7:a2:19:51:af:19
-----BEGIN CERTIFICATE-----
MIIB+TCCAaACFCb2w/KGZbgOqm5ZUlCIWHAU8gl0MAoGCCqGSM49BAMCMIGLMQsw
CQYDVQQGEwJFUzELMAkGA1UECAwCTUExFDASBgNVBAcMC1RyZXMgQ2FudG9zMREw
DwYDVQQKDAhlUHJvc2ltYTEeMBwGA1UEAwwVZVByb3NpbWEgTWFpbiBUZXN0IENB
MSYwJAYJKoZIhvcNAQkBFhdyb3V0ZXJ0ZXN0QGVwcm9zaW1hLmNvbTAeFw0yNTAz
MjQxMDMzMjNaFw0zNTAzMjIxMDMzMjNaMHMxCzAJBgNVBAYTAkVTMQswCQYDVQQI
DAJNQTERMA8GA1UECgwIZVByb3NpbWExHDAaBgNVBAMME1dhblRlc3RSb3V0ZXJM
b2NhbDExJjAkBgkqhkiG9w0BCQEWF3JvdXRlcnRlc3RAZXByb3NpbWEuY29tMFkw
EwYHKoZIzj0CAQYIKoZIzj0DAQcDQgAEbk3b1bC4YX9QvqvRMZayx92Y8ZP5fMZ3
yObSQtw7fthKXI9v1GnHdSroa3SpJZMapEHj0FJrGaU7+mcJTtK+eTAKBggqhkjO
PQQDAgNHADBEAiBua4+uxnq4ixJ/00dUhwDCnrzhMSRGySbe0LHexM7FBwIgDXaS
mxMahgf/O3ktR6ThRsV0jAuoABSgBVOnohlRrxk=
-----END CERTIFICATE-----
