Certificate:
    Data:
        Version: 1 (0x0)
        Serial Number:
            26:dc:b7:ee:d6:6e:13:32:9c:0a:5a:e8:0b:84:1c:36:cc:00:62:aa
        Signature Algorithm: ecdsa-with-SHA256
        Issuer: C=ES, ST=MA, L=Tres Cantos, O=eProsima, CN=eProsima Main Test CA/emailAddress=routertest@eprosima.com
        Validity
            Not Before: Dec 27 09:16:54 2023 GMT
            Not After : Dec 24 09:16:54 2033 GMT
        Subject: C=ES, ST=MA, O=eProsima, CN=WanTestRouterLocal1/emailAddress=routertest@eprosima.com
        Subject Public Key Info:
            Public Key Algorithm: id-ecPublicKey
                Public-Key: (256 bit)
                pub:
                    04:82:7b:7b:20:d7:90:c7:b6:07:00:7f:88:d0:ce:
                    e9:af:80:f5:bc:e2:95:11:b7:d5:0d:0f:f8:03:27:
                    a2:2b:6e:b9:85:82:73:88:12:e6:a4:8d:a8:a9:9f:
                    57:bf:15:3e:33:fa:ae:25:28:7a:9e:f9:1d:53:7f:
                    5e:35:58:63:92
                ASN1 OID: prime256v1
                NIST CURVE: P-256
    Signature Algorithm: ecdsa-with-SHA256
    Signature Value:
        30:45:02:20:11:04:a8:84:6d:6f:51:09:26:1c:77:46:e3:c6:
        27:42:ec:a4:8e:51:0c:13:94:d7:f6:99:c4:6d:67:c4:fb:72:
        02:21:00:97:58:ce:ea:55:ec:d4:4b:69:32:61:b9:cc:1f:19:
        dc:5c:db:2a:eb:5e:6c:d2:62:47:c9:fb:dd:87:f8:0a:46
-----BEGIN CERTIFICATE-----
MIIB+jCCAaACFCbct+7WbhMynApa6AuEHDbMAGKqMAoGCCqGSM49BAMCMIGLMQsw
CQYDVQQGEwJFUzELMAkGA1UECAwCTUExFDASBgNVBAcMC1RyZXMgQ2FudG9zMREw
DwYDVQQKDAhlUHJvc2ltYTEeMBwGA1UEAwwVZVByb3NpbWEgTWFpbiBUZXN0IENB
MSYwJAYJKoZIhvcNAQkBFhdyb3V0ZXJ0ZXN0QGVwcm9zaW1hLmNvbTAeFw0yMzEy
MjcwOTE2NTRaFw0zMzEyMjQwOTE2NTRaMHMxCzAJBgNVBAYTAkVTMQswCQYDVQQI
DAJNQTERMA8GA1UECgwIZVByb3NpbWExHDAaBgNVBAMME1dhblRlc3RSb3V0ZXJM
b2NhbDExJjAkBgkqhkiG9w0BCQEWF3JvdXRlcnRlc3RAZXByb3NpbWEuY29tMFkw
EwYHKoZIzj0CAQYIKoZIzj0DAQcDQgAEgnt7INeQx7YHAH+I0M7pr4D1vOKVEbfV
DQ/4AyeiK265hYJziBLmpI2oqZ9XvxU+M/quJSh6nvkdU39eNVhjkjAKBggqhkjO
PQQDAgNIADBFAiARBKiEbW9RCSYcd0bjxidC7KSOUQwTlNf2mcRtZ8T7cgIhAJdY
zupV7NRLaTJhucwfGdxc2yrrXmzSYkfJ+92H+ApG
-----END CERTIFICATE-----
