Certificate:
    Data:
        Version: 1 (0x0)
        Serial Number:
            05:0d:07:e5:af:0d:44:3c:98:d3:6a:b6:aa:e5:24:c1:91:0d:4e:bb
        Signature Algorithm: ecdsa-with-SHA256
        Issuer: C=ES, ST=MA, L=Tres Cantos, O=eProsima, CN=eProsima Main Test CA/emailAddress=routertest@eprosima.com
        Validity
            Not Before: Dec 26 08:08:21 2023 GMT
            Not After : Dec 23 08:08:21 2033 GMT
        Subject: C=ES, ST=MA, O=eProsima, CN=WanTestRouterLocal1/emailAddress=routertest@eprosima.com
        Subject Public Key Info:
            Public Key Algorithm: id-ecPublicKey
                Public-Key: (256 bit)
                pub:
                    04:37:2f:b2:51:24:3f:01:61:b5:8b:5d:1a:59:e7:
                    29:16:d0:d8:37:92:c8:02:03:56:a7:cf:47:6a:82:
                    43:99:fc:5b:c5:64:83:b5:53:b6:e4:cc:c1:9d:36:
                    17:69:5c:30:a5:58:84:f4:9c:f5:38:90:d1:55:98:
                    52:0a:78:d5:66
                ASN1 OID: prime256v1
                NIST CURVE: P-256
    Signature Algorithm: ecdsa-with-SHA256
    Signature Value:
        30:44:02:20:74:ba:3b:7e:74:13:b4:7d:d0:0a:32:82:df:69:
        35:ae:75:b9:33:5d:46:b8:e6:86:59:7f:ee:d8:bf:58:8b:db:
        02:20:5f:4c:c5:6b:65:2e:9e:1d:aa:21:22:88:4c:09:33:28:
        82:e3:ab:7a:db:90:53:e0:ee:7c:78:fe:06:34:70:43
-----BEGIN CERTIFICATE-----
MIIB+TCCAaACFAUNB+WvDUQ8mNNqtqrlJMGRDU67MAoGCCqGSM49BAMCMIGLMQsw
CQYDVQQGEwJFUzELMAkGA1UECAwCTUExFDASBgNVBAcMC1RyZXMgQ2FudG9zMREw
DwYDVQQKDAhlUHJvc2ltYTEeMBwGA1UEAwwVZVByb3NpbWEgTWFpbiBUZXN0IENB
MSYwJAYJKoZIhvcNAQkBFhdyb3V0ZXJ0ZXN0QGVwcm9zaW1hLmNvbTAeFw0yMzEy
MjYwODA4MjFaFw0zMzEyMjMwODA4MjFaMHMxCzAJBgNVBAYTAkVTMQswCQYDVQQI
DAJNQTERMA8GA1UECgwIZVByb3NpbWExHDAaBgNVBAMME1dhblRlc3RSb3V0ZXJM
b2NhbDExJjAkBgkqhkiG9w0BCQEWF3JvdXRlcnRlc3RAZXByb3NpbWEuY29tMFkw
EwYHKoZIzj0CAQYIKoZIzj0DAQcDQgAENy+yUSQ/AWG1i10aWecpFtDYN5LIAgNW
p89HaoJDmfxbxWSDtVO25MzBnTYXaVwwpViE9Jz1OJDRVZhSCnjVZjAKBggqhkjO
PQQDAgNHADBEAiB0ujt+dBO0fdAKMoLfaTWudbkzXUa45oZZf+7Yv1iL2wIgX0zF
a2Uunh2qISKITAkzKILjq3rbkFPg7nx4/gY0cEM=
-----END CERTIFICATE-----
