Certificate:
    Data:
        Version: 1 (0x0)
        Serial Number:
            10:4f:0a:18:47:3a:f7:d9:05:83:53:d2:3a:c2:57:8e:ce:71:74:64
        Signature Algorithm: ecdsa-with-SHA256
        Issuer: C=ES, ST=MA, L=Tres Cantos, O=eProsima, CN=eProsima Main Test CA/emailAddress=routertest@eprosima.com
        Validity
            Not Before: Jun  5 06:51:04 2023 GMT
            Not After : Jun  2 06:51:04 2033 GMT
        Subject: C=ES, ST=MA, O=eProsima, CN=WanTestRouterLocal1/emailAddress=routertest@eprosima.com
        Subject Public Key Info:
            Public Key Algorithm: id-ecPublicKey
                Public-Key: (256 bit)
                pub:
                    04:da:b9:9e:ac:d1:59:42:a5:2b:84:88:fc:1b:80:
                    0c:d9:04:bd:57:c8:62:37:7e:b4:16:19:ff:61:2f:
                    14:e5:42:d6:b9:54:fc:b8:bc:50:fc:02:cb:16:71:
                    d9:d0:95:f2:1f:a0:1b:b3:4d:30:95:ec:17:9d:61:
                    1e:b5:ae:60:f3
                ASN1 OID: prime256v1
                NIST CURVE: P-256
    Signature Algorithm: ecdsa-with-SHA256
    Signature Value:
        30:44:02:20:67:cb:c8:72:ed:6a:a2:dc:ab:83:50:7a:05:9f:
        57:ec:fb:d4:4b:ca:80:c9:b6:96:d7:e9:4c:f4:83:72:b0:4a:
        02:20:10:3d:91:9e:ae:a6:1f:5f:9b:9a:31:bd:62:f1:20:1a:
        b3:71:2c:ff:29:81:6d:b5:f8:86:bc:ff:55:7c:72:2d
-----BEGIN CERTIFICATE-----
MIIB+TCCAaACFBBPChhHOvfZBYNT0jrCV47OcXRkMAoGCCqGSM49BAMCMIGLMQsw
CQYDVQQGEwJFUzELMAkGA1UECAwCTUExFDASBgNVBAcMC1RyZXMgQ2FudG9zMREw
DwYDVQQKDAhlUHJvc2ltYTEeMBwGA1UEAwwVZVByb3NpbWEgTWFpbiBUZXN0IENB
MSYwJAYJKoZIhvcNAQkBFhdyb3V0ZXJ0ZXN0QGVwcm9zaW1hLmNvbTAeFw0yMzA2
MDUwNjUxMDRaFw0zMzA2MDIwNjUxMDRaMHMxCzAJBgNVBAYTAkVTMQswCQYDVQQI
DAJNQTERMA8GA1UECgwIZVByb3NpbWExHDAaBgNVBAMME1dhblRlc3RSb3V0ZXJM
b2NhbDExJjAkBgkqhkiG9w0BCQEWF3JvdXRlcnRlc3RAZXByb3NpbWEuY29tMFkw
EwYHKoZIzj0CAQYIKoZIzj0DAQcDQgAE2rmerNFZQqUrhIj8G4AM2QS9V8hiN360
Fhn/YS8U5ULWuVT8uLxQ/ALLFnHZ0JXyH6Abs00wlewXnWEeta5g8zAKBggqhkjO
PQQDAgNHADBEAiBny8hy7Wqi3KuDUHoFn1fs+9RLyoDJtpbX6Uz0g3KwSgIgED2R
nq6mH1+bmjG9YvEgGrNxLP8pgW21+Ia8/1V8ci0=
-----END CERTIFICATE-----
