Certificate:
    Data:
        Version: 1 (0x0)
        Serial Number:
            05:0d:07:e5:af:0d:44:3c:98:d3:6a:b6:aa:e5:24:c1:91:0d:4e:ba
        Signature Algorithm: ecdsa-with-SHA256
        Issuer: C=ES, ST=MA, L=Tres Cantos, O=eProsima, CN=eProsima Main Test CA/emailAddress=routertest@eprosima.com
        Validity
            Not Before: Dec 26 08:08:21 2023 GMT
            Not After : Dec 23 08:08:21 2033 GMT
        Subject: C=ES, ST=MA, O=eProsima, CN=WanTestRouterLocal0/emailAddress=routertest@eprosima.com
        Subject Public Key Info:
            Public Key Algorithm: id-ecPublicKey
                Public-Key: (256 bit)
                pub:
                    04:49:f0:9d:8e:52:44:eb:1c:fd:80:9d:73:89:22:
                    d1:80:40:0f:ef:2d:bf:cd:c2:5f:5b:ba:db:b2:96:
                    8f:cb:34:15:a2:71:97:64:99:c3:b7:02:96:8d:3b:
                    2f:bf:fb:36:61:99:8b:79:c8:53:08:b6:0e:f4:07:
                    0a:70:1e:b0:8a
                ASN1 OID: prime256v1
                NIST CURVE: P-256
    Signature Algorithm: ecdsa-with-SHA256
    Signature Value:
        30:46:02:21:00:b8:3f:c1:63:13:4a:12:8c:6d:9c:1e:b1:3e:
        24:47:d3:c6:7b:7f:50:bb:87:41:08:b0:db:ad:1f:7f:6b:07:
        4a:02:21:00:ab:20:03:cc:cc:7c:8a:e5:c8:15:16:c3:bc:2e:
        89:c6:ff:7e:ea:9d:c6:58:c5:45:9f:a1:84:e1:a6:9b:81:12
-----BEGIN CERTIFICATE-----
MIIB+zCCAaACFAUNB+WvDUQ8mNNqtqrlJMGRDU66MAoGCCqGSM49BAMCMIGLMQsw
CQYDVQQGEwJFUzELMAkGA1UECAwCTUExFDASBgNVBAcMC1RyZXMgQ2FudG9zMREw
DwYDVQQKDAhlUHJvc2ltYTEeMBwGA1UEAwwVZVByb3NpbWEgTWFpbiBUZXN0IENB
MSYwJAYJKoZIhvcNAQkBFhdyb3V0ZXJ0ZXN0QGVwcm9zaW1hLmNvbTAeFw0yMzEy
MjYwODA4MjFaFw0zMzEyMjMwODA4MjFaMHMxCzAJBgNVBAYTAkVTMQswCQYDVQQI
DAJNQTERMA8GA1UECgwIZVByb3NpbWExHDAaBgNVBAMME1dhblRlc3RSb3V0ZXJM
b2NhbDAxJjAkBgkqhkiG9w0BCQEWF3JvdXRlcnRlc3RAZXByb3NpbWEuY29tMFkw
EwYHKoZIzj0CAQYIKoZIzj0DAQcDQgAESfCdjlJE6xz9gJ1ziSLRgEAP7y2/zcJf
W7rbspaPyzQVonGXZJnDtwKWjTsvv/s2YZmLechTCLYO9AcKcB6wijAKBggqhkjO
PQQDAgNJADBGAiEAuD/BYxNKEoxtnB6xPiRH08Z7f1C7h0EIsNutH39rB0oCIQCr
IAPMzHyK5cgVFsO8LonG/37qncZYxUWfoYThppuBEg==
-----END CERTIFICATE-----
