Certificate:
    Data:
        Version: 1 (0x0)
        Serial Number:
            4c:ce:20:af:77:0d:1b:bf:48:40:cc:f7:2a:44:1b:a5:6b:2a:3f:f3
        Signature Algorithm: ecdsa-with-SHA256
        Issuer: C=ES, ST=MA, L=Tres Cantos, O=eProsima, CN=eProsima Main Test CA/emailAddress=routertest@eprosima.com
        Validity
            Not Before: Apr 14 13:48:22 2026 GMT
            Not After : Apr 11 13:48:22 2036 GMT
        Subject: C=ES, ST=MA, O=eProsima, CN=WanTestRouterLocal0/emailAddress=routertest@eprosima.com
        Subject Public Key Info:
            Public Key Algorithm: id-ecPublicKey
                Public-Key: (256 bit)
                pub:
                    04:1f:41:67:d2:4b:77:c4:42:fb:81:8f:6b:03:40:
                    63:20:31:8e:7a:4a:a6:d5:54:c2:db:76:91:3e:86:
                    80:d8:27:d8:40:14:b8:15:fa:7b:8f:54:9c:38:e5:
                    54:93:9f:62:c8:7a:94:7c:75:4c:d5:9d:38:92:89:
                    c7:b8:fe:38:b6
                ASN1 OID: prime256v1
                NIST CURVE: P-256
    Signature Algorithm: ecdsa-with-SHA256
    Signature Value:
        30:45:02:20:28:6f:d2:86:95:8b:29:a9:ad:dd:43:1c:06:54:
        8d:7a:0a:d6:3e:5c:8d:a2:49:b4:e6:c7:e5:25:a9:7a:2b:a9:
        02:21:00:d8:5b:2b:3f:21:b1:52:95:d4:c0:47:d4:56:c4:8f:
        b1:b4:06:2d:42:b2:88:19:2c:fb:fd:e5:66:46:a2:f3:72
-----BEGIN CERTIFICATE-----
MIIB+jCCAaACFEzOIK93DRu/SEDM9ypEG6VrKj/zMAoGCCqGSM49BAMCMIGLMQsw
CQYDVQQGEwJFUzELMAkGA1UECAwCTUExFDASBgNVBAcMC1RyZXMgQ2FudG9zMREw
DwYDVQQKDAhlUHJvc2ltYTEeMBwGA1UEAwwVZVByb3NpbWEgTWFpbiBUZXN0IENB
MSYwJAYJKoZIhvcNAQkBFhdyb3V0ZXJ0ZXN0QGVwcm9zaW1hLmNvbTAeFw0yNjA0
MTQxMzQ4MjJaFw0zNjA0MTExMzQ4MjJaMHMxCzAJBgNVBAYTAkVTMQswCQYDVQQI
DAJNQTERMA8GA1UECgwIZVByb3NpbWExHDAaBgNVBAMME1dhblRlc3RSb3V0ZXJM
b2NhbDAxJjAkBgkqhkiG9w0BCQEWF3JvdXRlcnRlc3RAZXByb3NpbWEuY29tMFkw
EwYHKoZIzj0CAQYIKoZIzj0DAQcDQgAEH0Fn0kt3xEL7gY9rA0BjIDGOekqm1VTC
23aRPoaA2CfYQBS4Ffp7j1ScOOVUk59iyHqUfHVM1Z04konHuP44tjAKBggqhkjO
PQQDAgNIADBFAiAob9KGlYspqa3dQxwGVI16CtY+XI2iSbTmx+UlqXorqQIhANhb
Kz8hsVKV1MBH1FbEj7G0Bi1CsogZLPv95WZGovNy
-----END CERTIFICATE-----
