Certificate:
    Data:
        Version: 1 (0x0)
        Serial Number:
            05:0d:07:e5:af:0d:44:3c:98:d3:6a:b6:aa:e5:24:c1:91:0d:4e:bc
        Signature Algorithm: ecdsa-with-SHA256
        Issuer: C=ES, ST=MA, L=Tres Cantos, O=eProsima, CN=eProsima Main Test CA/emailAddress=routertest@eprosima.com
        Validity
            Not Before: Dec 26 08:08:21 2023 GMT
            Not After : Dec 23 08:08:21 2033 GMT
        Subject: C=ES, ST=MA, O=eProsima, CN=WanTestServer/emailAddress=routertest@eprosima.com
        Subject Public Key Info:
            Public Key Algorithm: id-ecPublicKey
                Public-Key: (256 bit)
                pub:
                    04:1d:32:29:27:b0:f9:fc:67:a8:42:e9:69:7b:20:
                    ea:1e:c2:3e:f5:c5:75:d2:ce:e4:5e:75:7c:52:12:
                    50:f6:33:3b:84:0e:8f:84:5a:14:c6:10:f4:97:74:
                    ec:1c:ec:f2:05:78:b7:6f:77:4f:fa:d0:f7:e1:cd:
                    57:c5:db:81:b6
                ASN1 OID: prime256v1
                NIST CURVE: P-256
    Signature Algorithm: ecdsa-with-SHA256
    Signature Value:
        30:45:02:20:42:e0:a1:25:e5:0d:19:9b:0e:12:b5:c9:f9:f6:
        d3:35:9a:f4:9f:3e:b8:30:64:f7:4f:42:ad:00:87:55:70:7e:
        02:21:00:ae:40:81:03:43:19:00:72:e2:65:9d:7a:87:cd:20:
        10:2e:82:c8:db:a9:d0:2b:cc:74:ce:2e:0c:18:69:eb:d2
-----BEGIN CERTIFICATE-----
MIIB9DCCAZoCFAUNB+WvDUQ8mNNqtqrlJMGRDU68MAoGCCqGSM49BAMCMIGLMQsw
CQYDVQQGEwJFUzELMAkGA1UECAwCTUExFDASBgNVBAcMC1RyZXMgQ2FudG9zMREw
DwYDVQQKDAhlUHJvc2ltYTEeMBwGA1UEAwwVZVByb3NpbWEgTWFpbiBUZXN0IENB
MSYwJAYJKoZIhvcNAQkBFhdyb3V0ZXJ0ZXN0QGVwcm9zaW1hLmNvbTAeFw0yMzEy
MjYwODA4MjFaFw0zMzEyMjMwODA4MjFaMG0xCzAJBgNVBAYTAkVTMQswCQYDVQQI
DAJNQTERMA8GA1UECgwIZVByb3NpbWExFjAUBgNVBAMMDVdhblRlc3RTZXJ2ZXIx
JjAkBgkqhkiG9w0BCQEWF3JvdXRlcnRlc3RAZXByb3NpbWEuY29tMFkwEwYHKoZI
zj0CAQYIKoZIzj0DAQcDQgAEHTIpJ7D5/GeoQulpeyDqHsI+9cV10s7kXnV8UhJQ
9jM7hA6PhFoUxhD0l3TsHOzyBXi3b3dP+tD34c1XxduBtjAKBggqhkjOPQQDAgNI
ADBFAiBC4KEl5Q0Zmw4Stcn59tM1mvSfPrgwZPdPQq0Ah1VwfgIhAK5AgQNDGQBy
4mWdeofNIBAugsjbqdArzHTOLgwYaevS
-----END CERTIFICATE-----
