Certificate:
    Data:
        Version: 1 (0x0)
        Serial Number:
            26:dc:b7:ee:d6:6e:13:32:9c:0a:5a:e8:0b:84:1c:36:cc:00:62:ab
        Signature Algorithm: ecdsa-with-SHA256
        Issuer: C=ES, ST=MA, L=Tres Cantos, O=eProsima, CN=eProsima Main Test CA/emailAddress=routertest@eprosima.com
        Validity
            Not Before: Dec 27 09:16:54 2023 GMT
            Not After : Dec 24 09:16:54 2033 GMT
        Subject: C=ES, ST=MA, O=eProsima, CN=WanTestServer/emailAddress=routertest@eprosima.com
        Subject Public Key Info:
            Public Key Algorithm: id-ecPublicKey
                Public-Key: (256 bit)
                pub:
                    04:0e:02:e7:d1:67:ca:14:8b:f8:1f:1e:78:e6:8f:
                    57:98:a2:b5:17:82:f3:05:cd:26:72:a1:59:90:38:
                    09:fa:28:7b:74:2a:ec:d4:9d:2e:aa:b8:05:4e:ca:
                    16:de:a3:5b:33:da:e9:2b:e2:3e:b5:c9:61:1f:dc:
                    51:64:c7:c2:18
                ASN1 OID: prime256v1
                NIST CURVE: P-256
    Signature Algorithm: ecdsa-with-SHA256
    Signature Value:
        30:46:02:21:00:e9:e4:dc:c5:94:12:60:1b:ff:af:ed:33:24:
        dc:33:cc:5a:11:1d:c5:66:a9:1f:bc:0e:59:51:59:2d:ab:b9:
        6f:02:21:00:f8:df:1c:e8:91:7c:14:ff:69:08:a5:00:cc:c4:
        73:06:b4:ee:48:71:dc:6e:24:e8:8f:ed:5b:35:b4:65:11:27
-----BEGIN CERTIFICATE-----
MIIB9TCCAZoCFCbct+7WbhMynApa6AuEHDbMAGKrMAoGCCqGSM49BAMCMIGLMQsw
CQYDVQQGEwJFUzELMAkGA1UECAwCTUExFDASBgNVBAcMC1RyZXMgQ2FudG9zMREw
DwYDVQQKDAhlUHJvc2ltYTEeMBwGA1UEAwwVZVByb3NpbWEgTWFpbiBUZXN0IENB
MSYwJAYJKoZIhvcNAQkBFhdyb3V0ZXJ0ZXN0QGVwcm9zaW1hLmNvbTAeFw0yMzEy
MjcwOTE2NTRaFw0zMzEyMjQwOTE2NTRaMG0xCzAJBgNVBAYTAkVTMQswCQYDVQQI
DAJNQTERMA8GA1UECgwIZVByb3NpbWExFjAUBgNVBAMMDVdhblRlc3RTZXJ2ZXIx
JjAkBgkqhkiG9w0BCQEWF3JvdXRlcnRlc3RAZXByb3NpbWEuY29tMFkwEwYHKoZI
zj0CAQYIKoZIzj0DAQcDQgAEDgLn0WfKFIv4Hx545o9XmKK1F4LzBc0mcqFZkDgJ
+ih7dCrs1J0uqrgFTsoW3qNbM9rpK+I+tclhH9xRZMfCGDAKBggqhkjOPQQDAgNJ
ADBGAiEA6eTcxZQSYBv/r+0zJNwzzFoRHcVmqR+8DllRWS2ruW8CIQD43xzokXwU
/2kIpQDMxHMGtO5IcdxuJOiP7Vs1tGURJw==
-----END CERTIFICATE-----
