Certificate:
    Data:
        Version: 1 (0x0)
        Serial Number:
            26:f6:c3:f2:86:65:b8:0e:aa:6e:59:52:50:88:58:70:14:f2:09:75
        Signature Algorithm: ecdsa-with-SHA256
        Issuer: C=ES, ST=MA, L=Tres Cantos, O=eProsima, CN=eProsima Main Test CA/emailAddress=routertest@eprosima.com
        Validity
            Not Before: Mar 24 10:33:23 2025 GMT
            Not After : Mar 22 10:33:23 2035 GMT
        Subject: C=ES, ST=MA, O=eProsima, CN=WanTestServer/emailAddress=routertest@eprosima.com
        Subject Public Key Info:
            Public Key Algorithm: id-ecPublicKey
                Public-Key: (256 bit)
                pub:
                    04:1c:d3:0d:bd:27:d6:10:54:75:a9:9c:ab:ae:9d:
                    1b:49:b1:15:57:bf:a9:80:e9:1c:ca:0a:66:73:ea:
                    97:67:9c:41:33:7d:0b:e6:ec:a8:ae:ec:5a:7d:19:
                    6e:b8:90:28:48:a1:e2:1e:ea:fd:f0:ec:20:2c:37:
                    39:0b:e2:6b:52
                ASN1 OID: prime256v1
                NIST CURVE: P-256
    Signature Algorithm: ecdsa-with-SHA256
    Signature Value:
        30:45:02:21:00:e0:c2:04:a6:4b:aa:f9:78:36:2f:a1:af:ed:
        29:1f:7a:1a:90:dc:0f:63:a2:2a:2d:e0:5b:06:11:02:88:c9:
        61:02:20:04:93:12:1d:be:7f:22:3d:30:2c:b4:9e:0c:9f:5d:
        09:ed:7d:e8:4e:a3:96:90:a1:18:54:33:32:50:a4:ac:ab
-----BEGIN CERTIFICATE-----
MIIB9DCCAZoCFCb2w/KGZbgOqm5ZUlCIWHAU8gl1MAoGCCqGSM49BAMCMIGLMQsw
CQYDVQQGEwJFUzELMAkGA1UECAwCTUExFDASBgNVBAcMC1RyZXMgQ2FudG9zMREw
DwYDVQQKDAhlUHJvc2ltYTEeMBwGA1UEAwwVZVByb3NpbWEgTWFpbiBUZXN0IENB
MSYwJAYJKoZIhvcNAQkBFhdyb3V0ZXJ0ZXN0QGVwcm9zaW1hLmNvbTAeFw0yNTAz
MjQxMDMzMjNaFw0zNTAzMjIxMDMzMjNaMG0xCzAJBgNVBAYTAkVTMQswCQYDVQQI
DAJNQTERMA8GA1UECgwIZVByb3NpbWExFjAUBgNVBAMMDVdhblRlc3RTZXJ2ZXIx
JjAkBgkqhkiG9w0BCQEWF3JvdXRlcnRlc3RAZXByb3NpbWEuY29tMFkwEwYHKoZI
zj0CAQYIKoZIzj0DAQcDQgAEHNMNvSfWEFR1qZyrrp0bSbEVV7+pgOkcygpmc+qX
Z5xBM30L5uyoruxafRluuJAoSKHiHur98OwgLDc5C+JrUjAKBggqhkjOPQQDAgNI
ADBFAiEA4MIEpkuq+Xg2L6Gv7SkfehqQ3A9joiot4FsGEQKIyWECIASTEh2+fyI9
MCy0ngyfXQntfehOo5aQoRhUMzJQpKyr
-----END CERTIFICATE-----
