Certificate:
    Data:
        Version: 1 (0x0)
        Serial Number:
            4c:ce:20:af:77:0d:1b:bf:48:40:cc:f7:2a:44:1b:a5:6b:2a:3f:f5
        Signature Algorithm: ecdsa-with-SHA256
        Issuer: C=ES, ST=MA, L=Tres Cantos, O=eProsima, CN=eProsima Main Test CA/emailAddress=routertest@eprosima.com
        Validity
            Not Before: Apr 14 13:48:22 2026 GMT
            Not After : Apr 11 13:48:22 2036 GMT
        Subject: C=ES, ST=MA, O=eProsima, CN=WanTestServer/emailAddress=routertest@eprosima.com
        Subject Public Key Info:
            Public Key Algorithm: id-ecPublicKey
                Public-Key: (256 bit)
                pub:
                    04:b4:aa:4e:17:ef:50:d5:52:e4:53:da:3b:f6:08:
                    57:bb:a3:f5:0e:e8:35:67:3b:10:4f:c2:19:4f:3c:
                    fb:d0:8d:04:cc:d0:aa:3a:98:57:fe:27:8b:6d:76:
                    4a:69:74:ef:42:85:ac:4e:f3:56:f1:39:ea:39:8e:
                    c4:9f:7a:96:5f
                ASN1 OID: prime256v1
                NIST CURVE: P-256
    Signature Algorithm: ecdsa-with-SHA256
    Signature Value:
        30:44:02:20:13:79:f7:02:d7:e4:01:5e:fa:61:1b:bd:1e:61:
        04:54:6a:a6:a7:c6:11:87:64:88:ee:5a:82:60:8a:0f:5a:cb:
        02:20:06:a0:77:f0:c8:2c:1d:cf:2b:86:61:58:38:ac:be:3c:
        e7:e4:33:92:ef:36:bb:21:55:a3:cf:13:a1:5f:df:b6
-----BEGIN CERTIFICATE-----
MIIB8zCCAZoCFEzOIK93DRu/SEDM9ypEG6VrKj/1MAoGCCqGSM49BAMCMIGLMQsw
CQYDVQQGEwJFUzELMAkGA1UECAwCTUExFDASBgNVBAcMC1RyZXMgQ2FudG9zMREw
DwYDVQQKDAhlUHJvc2ltYTEeMBwGA1UEAwwVZVByb3NpbWEgTWFpbiBUZXN0IENB
MSYwJAYJKoZIhvcNAQkBFhdyb3V0ZXJ0ZXN0QGVwcm9zaW1hLmNvbTAeFw0yNjA0
MTQxMzQ4MjJaFw0zNjA0MTExMzQ4MjJaMG0xCzAJBgNVBAYTAkVTMQswCQYDVQQI
DAJNQTERMA8GA1UECgwIZVByb3NpbWExFjAUBgNVBAMMDVdhblRlc3RTZXJ2ZXIx
JjAkBgkqhkiG9w0BCQEWF3JvdXRlcnRlc3RAZXByb3NpbWEuY29tMFkwEwYHKoZI
zj0CAQYIKoZIzj0DAQcDQgAEtKpOF+9Q1VLkU9o79ghXu6P1Dug1ZzsQT8IZTzz7
0I0EzNCqOphX/ieLbXZKaXTvQoWsTvNW8TnqOY7En3qWXzAKBggqhkjOPQQDAgNH
ADBEAiATefcC1+QBXvphG70eYQRUaqanxhGHZIjuWoJgig9aywIgBqB38MgsHc8r
hmFYOKy+POfkM5LvNrshVaPPE6Ff37Y=
-----END CERTIFICATE-----
