Certificate:
    Data:
        Version: 1 (0x0)
        Serial Number:
            20:c8:db:5e:dc:f2:72:70:b0:f8:d0:87:69:a9:ac:37:86:b5:92:12
        Signature Algorithm: ecdsa-with-SHA256
        Issuer: C=ES, ST=MA, L=Tres Cantos, O=eProsima, CN=eProsima Main Test CA/emailAddress=routertest@eprosima.com
        Validity
            Not Before: Dec 27 08:59:28 2023 GMT
            Not After : Dec 24 08:59:28 2033 GMT
        Subject: C=ES, ST=MA, O=eProsima, CN=BackdoorTestLocalSub/emailAddress=routertest@eprosima.com
        Subject Public Key Info:
            Public Key Algorithm: id-ecPublicKey
                Public-Key: (256 bit)
                pub:
                    04:0f:f5:6e:33:ed:96:97:57:5e:a4:6a:b0:1e:eb:
                    79:b2:e5:8e:e4:e6:7a:42:28:b0:07:66:dd:91:2f:
                    ff:ad:5e:9a:7d:46:47:c7:61:49:7f:63:e6:f8:48:
                    c8:07:d5:dd:bc:11:bb:6a:d7:14:94:8b:f5:9f:61:
                    57:32:34:ec:a2
                ASN1 OID: prime256v1
                NIST CURVE: P-256
    Signature Algorithm: ecdsa-with-SHA256
    Signature Value:
        30:45:02:20:30:75:9c:70:17:03:9a:84:96:ed:93:13:07:5e:
        b1:74:8e:b6:7f:7c:28:19:01:73:37:ec:cf:de:0e:6d:c5:6a:
        02:21:00:99:d3:b1:81:ab:b1:ef:b2:73:ae:5b:48:c0:da:9c:
        cc:11:c7:c7:65:f6:d4:9c:93:b8:48:79:26:99:f3:d4:61
-----BEGIN CERTIFICATE-----
MIIB+zCCAaECFCDI217c8nJwsPjQh2mprDeGtZISMAoGCCqGSM49BAMCMIGLMQsw
CQYDVQQGEwJFUzELMAkGA1UECAwCTUExFDASBgNVBAcMC1RyZXMgQ2FudG9zMREw
DwYDVQQKDAhlUHJvc2ltYTEeMBwGA1UEAwwVZVByb3NpbWEgTWFpbiBUZXN0IENB
MSYwJAYJKoZIhvcNAQkBFhdyb3V0ZXJ0ZXN0QGVwcm9zaW1hLmNvbTAeFw0yMzEy
MjcwODU5MjhaFw0zMzEyMjQwODU5MjhaMHQxCzAJBgNVBAYTAkVTMQswCQYDVQQI
DAJNQTERMA8GA1UECgwIZVByb3NpbWExHTAbBgNVBAMMFEJhY2tkb29yVGVzdExv
Y2FsU3ViMSYwJAYJKoZIhvcNAQkBFhdyb3V0ZXJ0ZXN0QGVwcm9zaW1hLmNvbTBZ
MBMGByqGSM49AgEGCCqGSM49AwEHA0IABA/1bjPtlpdXXqRqsB7rebLljuTmekIo
sAdm3ZEv/61emn1GR8dhSX9j5vhIyAfV3bwRu2rXFJSL9Z9hVzI07KIwCgYIKoZI
zj0EAwIDSAAwRQIgMHWccBcDmoSW7ZMTB16xdI62f3woGQFzN+zP3g5txWoCIQCZ
07GBq7HvsnOuW0jA2pzMEcfHZfbUnJO4SHkmmfPUYQ==
-----END CERTIFICATE-----
