Certificate:
    Data:
        Version: 1 (0x0)
        Serial Number:
            20:c8:db:5e:dc:f2:72:70:b0:f8:d0:87:69:a9:ac:37:86:b5:92:11
        Signature Algorithm: ecdsa-with-SHA256
        Issuer: C=ES, ST=MA, L=Tres Cantos, O=eProsima, CN=eProsima Main Test CA/emailAddress=routertest@eprosima.com
        Validity
            Not Before: Dec 27 08:59:28 2023 GMT
            Not After : Dec 24 08:59:28 2033 GMT
        Subject: C=ES, ST=MA, O=eProsima, CN=BackdoorTestLocalPub/emailAddress=routertest@eprosima.com
        Subject Public Key Info:
            Public Key Algorithm: id-ecPublicKey
                Public-Key: (256 bit)
                pub:
                    04:47:b6:53:3e:37:00:07:b5:dc:5d:77:c9:65:cc:
                    73:8f:f7:fc:1b:d4:c5:e1:d0:fd:c9:33:ec:32:08:
                    69:c4:ef:59:d8:a4:78:22:26:89:26:97:fd:ef:eb:
                    17:05:d0:50:f4:0b:8b:60:48:2d:b6:7c:90:bf:b4:
                    43:3e:95:0d:fd
                ASN1 OID: prime256v1
                NIST CURVE: P-256
    Signature Algorithm: ecdsa-with-SHA256
    Signature Value:
        30:46:02:21:00:a8:c1:d8:30:51:9c:1a:05:c3:13:d6:72:2b:
        bc:57:23:12:c4:2f:2c:94:db:af:e6:6a:b9:3a:09:04:ad:5f:
        86:02:21:00:d4:21:d8:db:61:e7:ea:e1:cb:b2:d2:a1:56:dd:
        87:6a:d8:f6:00:89:e9:cc:ee:60:41:79:21:42:34:7e:18:97
-----BEGIN CERTIFICATE-----
MIIB/DCCAaECFCDI217c8nJwsPjQh2mprDeGtZIRMAoGCCqGSM49BAMCMIGLMQsw
CQYDVQQGEwJFUzELMAkGA1UECAwCTUExFDASBgNVBAcMC1RyZXMgQ2FudG9zMREw
DwYDVQQKDAhlUHJvc2ltYTEeMBwGA1UEAwwVZVByb3NpbWEgTWFpbiBUZXN0IENB
MSYwJAYJKoZIhvcNAQkBFhdyb3V0ZXJ0ZXN0QGVwcm9zaW1hLmNvbTAeFw0yMzEy
MjcwODU5MjhaFw0zMzEyMjQwODU5MjhaMHQxCzAJBgNVBAYTAkVTMQswCQYDVQQI
DAJNQTERMA8GA1UECgwIZVByb3NpbWExHTAbBgNVBAMMFEJhY2tkb29yVGVzdExv
Y2FsUHViMSYwJAYJKoZIhvcNAQkBFhdyb3V0ZXJ0ZXN0QGVwcm9zaW1hLmNvbTBZ
MBMGByqGSM49AgEGCCqGSM49AwEHA0IABEe2Uz43AAe13F13yWXMc4/3/BvUxeHQ
/ckz7DIIacTvWdikeCImiSaX/e/rFwXQUPQLi2BILbZ8kL+0Qz6VDf0wCgYIKoZI
zj0EAwIDSQAwRgIhAKjB2DBRnBoFwxPWciu8VyMSxC8slNuv5mq5OgkErV+GAiEA
1CHY22Hn6uHLstKhVt2Hatj2AInpzO5gQXkhQjR+GJc=
-----END CERTIFICATE-----
