Certificate:
    Data:
        Version: 1 (0x0)
        Serial Number:
            5f:85:ad:d0:62:d0:f5:a5:9c:8f:95:70:5e:5a:63:e9:d7:08:42:be
        Signature Algorithm: ecdsa-with-SHA256
        Issuer: C=ES, ST=MA, L=Tres Cantos, O=eProsima, CN=eProsima Main Test CA/emailAddress=routertest@eprosima.com
        Validity
            Not Before: Mar 24 10:25:49 2025 GMT
            Not After : Mar 22 10:25:49 2035 GMT
        Subject: C=ES, ST=MA, O=eProsima, CN=BackdoorTestLocalPub/emailAddress=routertest@eprosima.com
        Subject Public Key Info:
            Public Key Algorithm: id-ecPublicKey
                Public-Key: (256 bit)
                pub:
                    04:c8:0c:ac:0b:26:9f:5a:d1:d1:72:95:07:34:88:
                    dd:72:57:8e:50:7d:59:e4:8c:2f:2c:7b:38:19:ed:
                    4f:58:35:b2:ee:2b:e7:fb:5f:46:35:49:32:d7:94:
                    03:95:99:08:af:42:57:4b:7c:26:da:9e:45:ec:4d:
                    df:5a:90:a2:af
                ASN1 OID: prime256v1
                NIST CURVE: P-256
    Signature Algorithm: ecdsa-with-SHA256
    Signature Value:
        30:44:02:20:2a:e7:63:d1:54:73:52:71:ec:4d:d2:7e:8a:10:
        c6:cc:08:8a:33:3f:43:47:0a:d3:59:23:85:69:49:da:f5:5a:
        02:20:29:50:ff:65:e5:ad:1c:0f:62:3a:fe:b9:41:49:0a:c8:
        9b:87:77:f1:04:01:1a:b8:f7:f0:08:7b:4d:99:0e:69
-----BEGIN CERTIFICATE-----
MIIB+jCCAaECFF+FrdBi0PWlnI+VcF5aY+nXCEK+MAoGCCqGSM49BAMCMIGLMQsw
CQYDVQQGEwJFUzELMAkGA1UECAwCTUExFDASBgNVBAcMC1RyZXMgQ2FudG9zMREw
DwYDVQQKDAhlUHJvc2ltYTEeMBwGA1UEAwwVZVByb3NpbWEgTWFpbiBUZXN0IENB
MSYwJAYJKoZIhvcNAQkBFhdyb3V0ZXJ0ZXN0QGVwcm9zaW1hLmNvbTAeFw0yNTAz
MjQxMDI1NDlaFw0zNTAzMjIxMDI1NDlaMHQxCzAJBgNVBAYTAkVTMQswCQYDVQQI
DAJNQTERMA8GA1UECgwIZVByb3NpbWExHTAbBgNVBAMMFEJhY2tkb29yVGVzdExv
Y2FsUHViMSYwJAYJKoZIhvcNAQkBFhdyb3V0ZXJ0ZXN0QGVwcm9zaW1hLmNvbTBZ
MBMGByqGSM49AgEGCCqGSM49AwEHA0IABMgMrAsmn1rR0XKVBzSI3XJXjlB9WeSM
Lyx7OBntT1g1su4r5/tfRjVJMteUA5WZCK9CV0t8JtqeRexN31qQoq8wCgYIKoZI
zj0EAwIDRwAwRAIgKudj0VRzUnHsTdJ+ihDGzAiKMz9DRwrTWSOFaUna9VoCIClQ
/2XlrRwPYjr+uUFJCsibh3fxBAEauPfwCHtNmQ5p
-----END CERTIFICATE-----
