Certificate:
    Data:
        Version: 1 (0x0)
        Serial Number:
            5a:f3:09:bc:e9:67:ca:5b:bf:03:94:dc:7f:55:6d:5c:49:75:6d:85
        Signature Algorithm: ecdsa-with-SHA256
        Issuer: C=ES, ST=MA, L=Tres Cantos, O=eProsima, CN=eProsima Main Test CA/emailAddress=routertest@eprosima.com
        Validity
            Not Before: Apr 14 13:48:21 2026 GMT
            Not After : Apr 11 13:48:21 2036 GMT
        Subject: C=ES, ST=MA, O=eProsima, CN=BackdoorTestLocalSub/emailAddress=routertest@eprosima.com
        Subject Public Key Info:
            Public Key Algorithm: id-ecPublicKey
                Public-Key: (256 bit)
                pub:
                    04:f4:e3:b2:55:13:92:7d:fc:78:11:c0:86:54:f9:
                    62:9d:5b:02:04:56:c8:da:d7:70:30:b3:89:6f:7f:
                    ad:ea:44:b0:69:c7:77:a8:04:c5:67:25:f4:49:0b:
                    d5:15:6d:b9:7e:fe:b3:16:bc:1e:14:62:9a:f7:11:
                    fb:c9:f5:19:4a
                ASN1 OID: prime256v1
                NIST CURVE: P-256
    Signature Algorithm: ecdsa-with-SHA256
    Signature Value:
        30:45:02:21:00:dd:67:79:05:c1:c0:69:af:85:00:12:08:f2:
        3d:11:37:8c:e1:0d:ef:be:1b:ed:17:e8:c6:fb:35:c5:0d:32:
        7a:02:20:40:39:61:d7:69:38:81:1e:48:ac:07:58:f7:48:63:
        d1:33:fa:e3:23:85:ad:b5:36:f1:0c:54:8b:30:9a:3d:d6
-----BEGIN CERTIFICATE-----
MIIB+zCCAaECFFrzCbzpZ8pbvwOU3H9VbVxJdW2FMAoGCCqGSM49BAMCMIGLMQsw
CQYDVQQGEwJFUzELMAkGA1UECAwCTUExFDASBgNVBAcMC1RyZXMgQ2FudG9zMREw
DwYDVQQKDAhlUHJvc2ltYTEeMBwGA1UEAwwVZVByb3NpbWEgTWFpbiBUZXN0IENB
MSYwJAYJKoZIhvcNAQkBFhdyb3V0ZXJ0ZXN0QGVwcm9zaW1hLmNvbTAeFw0yNjA0
MTQxMzQ4MjFaFw0zNjA0MTExMzQ4MjFaMHQxCzAJBgNVBAYTAkVTMQswCQYDVQQI
DAJNQTERMA8GA1UECgwIZVByb3NpbWExHTAbBgNVBAMMFEJhY2tkb29yVGVzdExv
Y2FsU3ViMSYwJAYJKoZIhvcNAQkBFhdyb3V0ZXJ0ZXN0QGVwcm9zaW1hLmNvbTBZ
MBMGByqGSM49AgEGCCqGSM49AwEHA0IABPTjslUTkn38eBHAhlT5Yp1bAgRWyNrX
cDCziW9/repEsGnHd6gExWcl9EkL1RVtuX7+sxa8HhRimvcR+8n1GUowCgYIKoZI
zj0EAwIDSAAwRQIhAN1neQXBwGmvhQASCPI9ETeM4Q3vvhvtF+jG+zXFDTJ6AiBA
OWHXaTiBHkisB1j3SGPRM/rjI4WttTbxDFSLMJo91g==
-----END CERTIFICATE-----
