Certificate:
    Data:
        Version: 1 (0x0)
        Serial Number:
            5a:f3:09:bc:e9:67:ca:5b:bf:03:94:dc:7f:55:6d:5c:49:75:6d:84
        Signature Algorithm: ecdsa-with-SHA256
        Issuer: C=ES, ST=MA, L=Tres Cantos, O=eProsima, CN=eProsima Main Test CA/emailAddress=routertest@eprosima.com
        Validity
            Not Before: Apr 14 13:48:21 2026 GMT
            Not After : Apr 11 13:48:21 2036 GMT
        Subject: C=ES, ST=MA, O=eProsima, CN=BackdoorTestLocalPub/emailAddress=routertest@eprosima.com
        Subject Public Key Info:
            Public Key Algorithm: id-ecPublicKey
                Public-Key: (256 bit)
                pub:
                    04:63:fe:e2:22:a1:d0:81:a3:b5:a5:e0:08:18:99:
                    b6:d8:f9:34:62:3c:bc:35:06:7c:c6:71:d4:7e:5f:
                    2a:17:43:04:4d:8c:e6:08:ef:a0:72:db:45:93:7c:
                    90:57:8d:20:9c:a0:40:37:44:e7:bf:18:86:fb:8e:
                    d9:7c:4a:90:b9
                ASN1 OID: prime256v1
                NIST CURVE: P-256
    Signature Algorithm: ecdsa-with-SHA256
    Signature Value:
        30:45:02:21:00:93:b9:2b:ee:99:2c:7b:f9:6f:f3:64:b3:fd:
        55:e2:e5:ba:f8:3b:27:18:53:b2:39:bf:76:9b:de:86:29:7f:
        71:02:20:72:5b:71:c2:ff:f3:53:fb:9c:7d:ac:35:36:0c:33:
        69:4c:5d:8a:7e:00:e6:88:e2:cb:38:e9:23:82:14:24:5d
-----BEGIN CERTIFICATE-----
MIIB+zCCAaECFFrzCbzpZ8pbvwOU3H9VbVxJdW2EMAoGCCqGSM49BAMCMIGLMQsw
CQYDVQQGEwJFUzELMAkGA1UECAwCTUExFDASBgNVBAcMC1RyZXMgQ2FudG9zMREw
DwYDVQQKDAhlUHJvc2ltYTEeMBwGA1UEAwwVZVByb3NpbWEgTWFpbiBUZXN0IENB
MSYwJAYJKoZIhvcNAQkBFhdyb3V0ZXJ0ZXN0QGVwcm9zaW1hLmNvbTAeFw0yNjA0
MTQxMzQ4MjFaFw0zNjA0MTExMzQ4MjFaMHQxCzAJBgNVBAYTAkVTMQswCQYDVQQI
DAJNQTERMA8GA1UECgwIZVByb3NpbWExHTAbBgNVBAMMFEJhY2tkb29yVGVzdExv
Y2FsUHViMSYwJAYJKoZIhvcNAQkBFhdyb3V0ZXJ0ZXN0QGVwcm9zaW1hLmNvbTBZ
MBMGByqGSM49AgEGCCqGSM49AwEHA0IABGP+4iKh0IGjtaXgCBiZttj5NGI8vDUG
fMZx1H5fKhdDBE2M5gjvoHLbRZN8kFeNIJygQDdE578YhvuO2XxKkLkwCgYIKoZI
zj0EAwIDSAAwRQIhAJO5K+6ZLHv5b/Nks/1V4uW6+DsnGFOyOb92m96GKX9xAiBy
W3HC//NT+5x9rDU2DDNpTF2KfgDmiOLLOOkjghQkXQ==
-----END CERTIFICATE-----
