Certificate:
    Data:
        Version: 1 (0x0)
        Serial Number:
            10:4f:0a:18:47:3a:f7:d9:05:83:53:d2:3a:c2:57:8e:ce:71:74:53
        Signature Algorithm: ecdsa-with-SHA256
        Issuer: C=ES, ST=MA, L=Tres Cantos, O=eProsima, CN=eProsima Main Test CA/emailAddress=routertest@eprosima.com
        Validity
            Not Before: Jun  2 09:19:00 2023 GMT
            Not After : May 30 09:19:00 2033 GMT
        Subject: C=ES, ST=MA, O=eProsima, CN=BackdoorTestLocal/emailAddress=routertest@eprosima.com
        Subject Public Key Info:
            Public Key Algorithm: id-ecPublicKey
                Public-Key: (256 bit)
                pub:
                    04:d3:22:e8:c0:ee:5b:30:80:d0:36:8b:3c:09:21:
                    dd:83:3c:b1:94:96:15:33:ca:95:99:f3:90:c9:d6:
                    6e:e6:e4:82:d0:cf:29:80:7e:77:54:64:7b:2f:8f:
                    09:a9:3d:24:2d:3d:b1:d9:0b:a8:46:33:22:96:34:
                    04:28:41:54:81
                ASN1 OID: prime256v1
                NIST CURVE: P-256
    Signature Algorithm: ecdsa-with-SHA256
    Signature Value:
        30:44:02:20:64:21:2f:b1:8f:f4:e4:c3:fc:87:56:64:28:1a:
        53:fe:66:68:50:f6:ae:57:f9:87:1d:7c:c4:9b:cd:f6:96:c1:
        02:20:4e:02:fd:20:a1:e0:66:77:7e:be:d0:05:0c:bc:dd:73:
        38:37:e3:0c:5f:f6:9a:84:cf:54:c0:88:e8:49:4e:ac
-----BEGIN CERTIFICATE-----
MIIB9zCCAZ4CFBBPChhHOvfZBYNT0jrCV47OcXRTMAoGCCqGSM49BAMCMIGLMQsw
CQYDVQQGEwJFUzELMAkGA1UECAwCTUExFDASBgNVBAcMC1RyZXMgQ2FudG9zMREw
DwYDVQQKDAhlUHJvc2ltYTEeMBwGA1UEAwwVZVByb3NpbWEgTWFpbiBUZXN0IENB
MSYwJAYJKoZIhvcNAQkBFhdyb3V0ZXJ0ZXN0QGVwcm9zaW1hLmNvbTAeFw0yMzA2
MDIwOTE5MDBaFw0zMzA1MzAwOTE5MDBaMHExCzAJBgNVBAYTAkVTMQswCQYDVQQI
DAJNQTERMA8GA1UECgwIZVByb3NpbWExGjAYBgNVBAMMEUJhY2tkb29yVGVzdExv
Y2FsMSYwJAYJKoZIhvcNAQkBFhdyb3V0ZXJ0ZXN0QGVwcm9zaW1hLmNvbTBZMBMG
ByqGSM49AgEGCCqGSM49AwEHA0IABNMi6MDuWzCA0DaLPAkh3YM8sZSWFTPKlZnz
kMnWbubkgtDPKYB+d1Rkey+PCak9JC09sdkLqEYzIpY0BChBVIEwCgYIKoZIzj0E
AwIDRwAwRAIgZCEvsY/05MP8h1ZkKBpT/mZoUPauV/mHHXzEm832lsECIE4C/SCh
4GZ3fr7QBQy83XM4N+MMX/aahM9UwIjoSU6s
-----END CERTIFICATE-----
