Certificate:
    Data:
        Version: 1 (0x0)
        Serial Number:
            5f:85:ad:d0:62:d0:f5:a5:9c:8f:95:70:5e:5a:63:e9:d7:08:42:bf
        Signature Algorithm: ecdsa-with-SHA256
        Issuer: C=ES, ST=MA, L=Tres Cantos, O=eProsima, CN=eProsima Main Test CA/emailAddress=routertest@eprosima.com
        Validity
            Not Before: Mar 24 10:25:49 2025 GMT
            Not After : Mar 22 10:25:49 2035 GMT
        Subject: C=ES, ST=MA, O=eProsima, CN=BackdoorTestLocalSub/emailAddress=routertest@eprosima.com
        Subject Public Key Info:
            Public Key Algorithm: id-ecPublicKey
                Public-Key: (256 bit)
                pub:
                    04:7a:16:bc:1e:1f:de:f0:51:40:2d:19:1c:d0:c9:
                    56:4c:f0:a0:22:d2:d4:02:cd:89:93:5d:16:df:1c:
                    08:36:c8:db:db:7c:e6:8b:73:22:e9:9d:54:a2:cc:
                    72:f1:4b:48:d8:f5:6b:d4:4e:8b:34:31:f6:6f:82:
                    fb:4c:d6:a3:b7
                ASN1 OID: prime256v1
                NIST CURVE: P-256
    Signature Algorithm: ecdsa-with-SHA256
    Signature Value:
        30:46:02:21:00:98:58:98:c7:8d:9f:61:28:c2:4b:cf:c1:8c:
        4a:30:20:ed:c6:68:31:c8:27:51:0e:7a:a7:6b:5d:67:ad:39:
        50:02:21:00:87:10:60:5e:b8:43:d1:7a:c6:9d:11:b3:62:2d:
        6b:92:b8:7e:a3:9d:23:86:27:68:4c:52:fd:ad:ff:b4:f1:b0
-----BEGIN CERTIFICATE-----
MIIB/DCCAaECFF+FrdBi0PWlnI+VcF5aY+nXCEK/MAoGCCqGSM49BAMCMIGLMQsw
CQYDVQQGEwJFUzELMAkGA1UECAwCTUExFDASBgNVBAcMC1RyZXMgQ2FudG9zMREw
DwYDVQQKDAhlUHJvc2ltYTEeMBwGA1UEAwwVZVByb3NpbWEgTWFpbiBUZXN0IENB
MSYwJAYJKoZIhvcNAQkBFhdyb3V0ZXJ0ZXN0QGVwcm9zaW1hLmNvbTAeFw0yNTAz
MjQxMDI1NDlaFw0zNTAzMjIxMDI1NDlaMHQxCzAJBgNVBAYTAkVTMQswCQYDVQQI
DAJNQTERMA8GA1UECgwIZVByb3NpbWExHTAbBgNVBAMMFEJhY2tkb29yVGVzdExv
Y2FsU3ViMSYwJAYJKoZIhvcNAQkBFhdyb3V0ZXJ0ZXN0QGVwcm9zaW1hLmNvbTBZ
MBMGByqGSM49AgEGCCqGSM49AwEHA0IABHoWvB4f3vBRQC0ZHNDJVkzwoCLS1ALN
iZNdFt8cCDbI29t85otzIumdVKLMcvFLSNj1a9ROizQx9m+C+0zWo7cwCgYIKoZI
zj0EAwIDSQAwRgIhAJhYmMeNn2EowkvPwYxKMCDtxmgxyCdRDnqna11nrTlQAiEA
hxBgXrhD0XrGnRGzYi1rkrh+o50jhidoTFL9rf+08bA=
-----END CERTIFICATE-----
