Certificate:
    Data:
        Version: 1 (0x0)
        Serial Number:
            69:cf:82:c6:5e:a7:71:93:85:bc:f3:ea:34:0c:a8:02:64:c4:c9:fa
        Signature Algorithm: ecdsa-with-SHA256
        Issuer: C=ES, ST=MA, L=Tres Cantos, O=eProsima, CN=eProsima Main Test CA/emailAddress=routertest@eprosima.com
        Validity
            Not Before: Dec 21 15:57:16 2023 GMT
            Not After : Dec 18 15:57:16 2033 GMT
        Subject: C=ES, ST=MA, O=eProsima, CN=BackdoorTestLocalPub/emailAddress=routertest@eprosima.com
        Subject Public Key Info:
            Public Key Algorithm: id-ecPublicKey
                Public-Key: (256 bit)
                pub:
                    04:c7:7a:5c:1f:e5:d4:e6:ff:d1:aa:f9:18:e2:b2:
                    dc:73:db:44:8e:41:df:2b:20:8e:cd:cd:db:ee:93:
                    eb:56:73:ed:53:14:5d:32:69:92:d2:08:45:fb:03:
                    0a:b0:91:0b:d4:95:3b:c0:43:b0:ba:36:8d:e0:46:
                    44:be:b0:bf:4a
                ASN1 OID: prime256v1
                NIST CURVE: P-256
    Signature Algorithm: ecdsa-with-SHA256
    Signature Value:
        30:46:02:21:00:a4:aa:24:25:70:54:ea:61:ff:a1:5d:af:12:
        fd:40:a3:10:7b:34:79:9b:f4:99:0d:d4:28:2e:8b:ee:45:94:
        44:02:21:00:96:16:ab:a4:0d:e0:f4:e4:86:40:e2:75:c7:78:
        7d:5f:92:e2:31:07:5d:47:79:ac:1d:16:0a:3c:65:56:3e:58
-----BEGIN CERTIFICATE-----
MIIB/DCCAaECFGnPgsZep3GThbzz6jQMqAJkxMn6MAoGCCqGSM49BAMCMIGLMQsw
CQYDVQQGEwJFUzELMAkGA1UECAwCTUExFDASBgNVBAcMC1RyZXMgQ2FudG9zMREw
DwYDVQQKDAhlUHJvc2ltYTEeMBwGA1UEAwwVZVByb3NpbWEgTWFpbiBUZXN0IENB
MSYwJAYJKoZIhvcNAQkBFhdyb3V0ZXJ0ZXN0QGVwcm9zaW1hLmNvbTAeFw0yMzEy
MjExNTU3MTZaFw0zMzEyMTgxNTU3MTZaMHQxCzAJBgNVBAYTAkVTMQswCQYDVQQI
DAJNQTERMA8GA1UECgwIZVByb3NpbWExHTAbBgNVBAMMFEJhY2tkb29yVGVzdExv
Y2FsUHViMSYwJAYJKoZIhvcNAQkBFhdyb3V0ZXJ0ZXN0QGVwcm9zaW1hLmNvbTBZ
MBMGByqGSM49AgEGCCqGSM49AwEHA0IABMd6XB/l1Ob/0ar5GOKy3HPbRI5B3ysg
js3N2+6T61Zz7VMUXTJpktIIRfsDCrCRC9SVO8BDsLo2jeBGRL6wv0owCgYIKoZI
zj0EAwIDSQAwRgIhAKSqJCVwVOph/6FdrxL9QKMQezR5m/SZDdQoLovuRZREAiEA
lharpA3g9OSGQOJ1x3h9X5LiMQddR3msHRYKPGVWPlg=
-----END CERTIFICATE-----
