Certificate:
    Data:
        Version: 1 (0x0)
        Serial Number:
            69:cf:82:c6:5e:a7:71:93:85:bc:f3:ea:34:0c:a8:02:64:c4:c9:fb
        Signature Algorithm: ecdsa-with-SHA256
        Issuer: C=ES, ST=MA, L=Tres Cantos, O=eProsima, CN=eProsima Main Test CA/emailAddress=routertest@eprosima.com
        Validity
            Not Before: Dec 21 15:57:16 2023 GMT
            Not After : Dec 18 15:57:16 2033 GMT
        Subject: C=ES, ST=MA, O=eProsima, CN=BackdoorTestLocalSub/emailAddress=routertest@eprosima.com
        Subject Public Key Info:
            Public Key Algorithm: id-ecPublicKey
                Public-Key: (256 bit)
                pub:
                    04:c2:b0:ca:0e:2d:98:e3:46:69:04:97:25:01:9a:
                    41:ba:16:f4:a0:b9:9a:45:1c:61:b2:da:f5:17:e4:
                    19:ac:09:b9:dd:13:92:1f:f5:01:77:a1:e7:9b:f4:
                    8d:f3:ff:f3:cd:18:9a:84:8b:9b:d2:39:4e:f4:f7:
                    d7:40:91:0d:0d
                ASN1 OID: prime256v1
                NIST CURVE: P-256
    Signature Algorithm: ecdsa-with-SHA256
    Signature Value:
        30:45:02:20:2b:44:a4:5f:98:de:54:b3:b1:84:05:f7:b2:df:
        08:d3:ee:61:a0:cd:54:d9:f0:1e:96:c2:a7:25:31:aa:92:63:
        02:21:00:fb:3a:31:37:7b:69:fe:61:e1:f1:2c:d8:af:f9:56:
        45:ce:02:4c:86:6b:ea:b5:42:80:a8:26:ee:8f:7b:38:8c
-----BEGIN CERTIFICATE-----
MIIB+zCCAaECFGnPgsZep3GThbzz6jQMqAJkxMn7MAoGCCqGSM49BAMCMIGLMQsw
CQYDVQQGEwJFUzELMAkGA1UECAwCTUExFDASBgNVBAcMC1RyZXMgQ2FudG9zMREw
DwYDVQQKDAhlUHJvc2ltYTEeMBwGA1UEAwwVZVByb3NpbWEgTWFpbiBUZXN0IENB
MSYwJAYJKoZIhvcNAQkBFhdyb3V0ZXJ0ZXN0QGVwcm9zaW1hLmNvbTAeFw0yMzEy
MjExNTU3MTZaFw0zMzEyMTgxNTU3MTZaMHQxCzAJBgNVBAYTAkVTMQswCQYDVQQI
DAJNQTERMA8GA1UECgwIZVByb3NpbWExHTAbBgNVBAMMFEJhY2tkb29yVGVzdExv
Y2FsU3ViMSYwJAYJKoZIhvcNAQkBFhdyb3V0ZXJ0ZXN0QGVwcm9zaW1hLmNvbTBZ
MBMGByqGSM49AgEGCCqGSM49AwEHA0IABMKwyg4tmONGaQSXJQGaQboW9KC5mkUc
YbLa9RfkGawJud0Tkh/1AXeh55v0jfP/880YmoSLm9I5TvT310CRDQ0wCgYIKoZI
zj0EAwIDSAAwRQIgK0SkX5jeVLOxhAX3st8I0+5hoM1U2fAelsKnJTGqkmMCIQD7
OjE3e2n+YeHxLNiv+VZFzgJMhmvqtUKAqCbuj3s4jA==
-----END CERTIFICATE-----
