Certificate:
    Data:
        Version: 1 (0x0)
        Serial Number:
            5f:85:ad:d0:62:d0:f5:a5:9c:8f:95:70:5e:5a:63:e9:d7:08:42:c0
        Signature Algorithm: ecdsa-with-SHA256
        Issuer: C=ES, ST=MA, L=Tres Cantos, O=eProsima, CN=eProsima Main Test CA/emailAddress=routertest@eprosima.com
        Validity
            Not Before: Mar 24 10:25:49 2025 GMT
            Not After : Mar 22 10:25:49 2035 GMT
        Subject: C=ES, ST=MA, O=eProsima, CN=BackdoorTestRouter/emailAddress=routertest@eprosima.com
        Subject Public Key Info:
            Public Key Algorithm: id-ecPublicKey
                Public-Key: (256 bit)
                pub:
                    04:1c:33:8a:73:56:3f:b6:6a:11:8d:6f:f7:ca:9b:
                    ae:4c:5c:f6:cb:76:fe:0f:e4:8c:4a:9f:14:2f:f9:
                    ff:4d:fc:1f:c2:5b:fb:c2:f5:d3:48:73:3e:69:d0:
                    9f:05:b3:0a:39:5e:fa:2c:ff:07:a2:9e:14:a0:8a:
                    8d:4f:0d:62:9d
                ASN1 OID: prime256v1
                NIST CURVE: P-256
    Signature Algorithm: ecdsa-with-SHA256
    Signature Value:
        30:45:02:20:37:5b:f4:2e:4a:c1:23:f9:6a:a7:1c:df:a5:78:
        78:63:4b:83:07:33:1c:89:a4:7f:c4:fa:a2:50:ff:ed:dd:e6:
        02:21:00:df:b6:29:a6:c0:d6:20:39:d9:a7:62:2d:a6:ca:61:
        e7:d4:20:80:6d:a9:6d:e4:43:22:1d:b8:a2:8a:5e:24:d0
-----BEGIN CERTIFICATE-----
MIIB+TCCAZ8CFF+FrdBi0PWlnI+VcF5aY+nXCELAMAoGCCqGSM49BAMCMIGLMQsw
CQYDVQQGEwJFUzELMAkGA1UECAwCTUExFDASBgNVBAcMC1RyZXMgQ2FudG9zMREw
DwYDVQQKDAhlUHJvc2ltYTEeMBwGA1UEAwwVZVByb3NpbWEgTWFpbiBUZXN0IENB
MSYwJAYJKoZIhvcNAQkBFhdyb3V0ZXJ0ZXN0QGVwcm9zaW1hLmNvbTAeFw0yNTAz
MjQxMDI1NDlaFw0zNTAzMjIxMDI1NDlaMHIxCzAJBgNVBAYTAkVTMQswCQYDVQQI
DAJNQTERMA8GA1UECgwIZVByb3NpbWExGzAZBgNVBAMMEkJhY2tkb29yVGVzdFJv
dXRlcjEmMCQGCSqGSIb3DQEJARYXcm91dGVydGVzdEBlcHJvc2ltYS5jb20wWTAT
BgcqhkjOPQIBBggqhkjOPQMBBwNCAAQcM4pzVj+2ahGNb/fKm65MXPbLdv4P5IxK
nxQv+f9N/B/CW/vC9dNIcz5p0J8Fswo5Xvos/weinhSgio1PDWKdMAoGCCqGSM49
BAMCA0gAMEUCIDdb9C5KwSP5aqcc36V4eGNLgwczHImkf8T6olD/7d3mAiEA37Yp
psDWIDnZp2Itpsph59QggG2pbeRDIh24oopeJNA=
-----END CERTIFICATE-----
