Certificate:
    Data:
        Version: 1 (0x0)
        Serial Number:
            5a:f3:09:bc:e9:67:ca:5b:bf:03:94:dc:7f:55:6d:5c:49:75:6d:86
        Signature Algorithm: ecdsa-with-SHA256
        Issuer: C=ES, ST=MA, L=Tres Cantos, O=eProsima, CN=eProsima Main Test CA/emailAddress=routertest@eprosima.com
        Validity
            Not Before: Apr 14 13:48:21 2026 GMT
            Not After : Apr 11 13:48:21 2036 GMT
        Subject: C=ES, ST=MA, O=eProsima, CN=BackdoorTestRouter/emailAddress=routertest@eprosima.com
        Subject Public Key Info:
            Public Key Algorithm: id-ecPublicKey
                Public-Key: (256 bit)
                pub:
                    04:f3:5a:0b:03:ab:a2:89:e2:c2:0e:36:97:d5:f7:
                    0a:e7:08:df:1f:a6:68:80:a1:60:67:f8:b3:f5:e4:
                    48:0a:6a:da:51:6e:a3:e4:74:d9:2e:bf:2e:4e:45:
                    29:0e:36:01:b7:df:d6:be:77:4c:5c:53:14:d7:48:
                    65:01:b2:60:a8
                ASN1 OID: prime256v1
                NIST CURVE: P-256
    Signature Algorithm: ecdsa-with-SHA256
    Signature Value:
        30:45:02:20:13:bb:02:e3:88:8d:1a:c7:15:8a:06:3e:7a:8f:
        d8:51:e2:4e:f1:f3:2b:5c:a7:cd:d6:56:e7:32:f2:df:7d:b9:
        02:21:00:c9:49:07:55:5a:35:f1:87:3e:6f:c0:00:36:87:1f:
        ac:b0:45:4a:e3:cf:15:aa:85:6d:d2:7b:42:49:b7:20:81
-----BEGIN CERTIFICATE-----
MIIB+TCCAZ8CFFrzCbzpZ8pbvwOU3H9VbVxJdW2GMAoGCCqGSM49BAMCMIGLMQsw
CQYDVQQGEwJFUzELMAkGA1UECAwCTUExFDASBgNVBAcMC1RyZXMgQ2FudG9zMREw
DwYDVQQKDAhlUHJvc2ltYTEeMBwGA1UEAwwVZVByb3NpbWEgTWFpbiBUZXN0IENB
MSYwJAYJKoZIhvcNAQkBFhdyb3V0ZXJ0ZXN0QGVwcm9zaW1hLmNvbTAeFw0yNjA0
MTQxMzQ4MjFaFw0zNjA0MTExMzQ4MjFaMHIxCzAJBgNVBAYTAkVTMQswCQYDVQQI
DAJNQTERMA8GA1UECgwIZVByb3NpbWExGzAZBgNVBAMMEkJhY2tkb29yVGVzdFJv
dXRlcjEmMCQGCSqGSIb3DQEJARYXcm91dGVydGVzdEBlcHJvc2ltYS5jb20wWTAT
BgcqhkjOPQIBBggqhkjOPQMBBwNCAATzWgsDq6KJ4sIONpfV9wrnCN8fpmiAoWBn
+LP15EgKatpRbqPkdNkuvy5ORSkONgG339a+d0xcUxTXSGUBsmCoMAoGCCqGSM49
BAMCA0gAMEUCIBO7AuOIjRrHFYoGPnqP2FHiTvHzK1ynzdZW5zLy3325AiEAyUkH
VVo18Yc+b8AANocfrLBFSuPPFaqFbdJ7Qkm3IIE=
-----END CERTIFICATE-----
