Certificate:
    Data:
        Version: 1 (0x0)
        Serial Number:
            69:cf:82:c6:5e:a7:71:93:85:bc:f3:ea:34:0c:a8:02:64:c4:c9:fc
        Signature Algorithm: ecdsa-with-SHA256
        Issuer: C=ES, ST=MA, L=Tres Cantos, O=eProsima, CN=eProsima Main Test CA/emailAddress=routertest@eprosima.com
        Validity
            Not Before: Dec 21 15:57:16 2023 GMT
            Not After : Dec 18 15:57:16 2033 GMT
        Subject: C=ES, ST=MA, O=eProsima, CN=BackdoorTestRouter/emailAddress=routertest@eprosima.com
        Subject Public Key Info:
            Public Key Algorithm: id-ecPublicKey
                Public-Key: (256 bit)
                pub:
                    04:87:12:ea:af:bc:b6:b0:f3:f6:3f:95:67:9f:51:
                    bb:ae:32:9d:95:d3:c5:87:63:0d:db:0b:3e:0c:76:
                    98:e8:34:9c:63:da:21:b9:00:49:ea:af:ce:ff:6d:
                    b3:59:39:07:b5:93:5a:2b:75:05:f3:e8:da:3b:5d:
                    6b:b0:f6:7f:06
                ASN1 OID: prime256v1
                NIST CURVE: P-256
    Signature Algorithm: ecdsa-with-SHA256
    Signature Value:
        30:44:02:20:47:f0:b1:0d:36:cf:50:8e:bb:69:6e:a8:31:39:
        ba:37:cc:50:6d:ac:cb:cf:b6:c0:b7:c9:5e:4d:d8:5a:99:05:
        02:20:10:25:67:fa:d4:a2:c2:cb:28:74:d9:46:cf:f1:fb:70:
        9f:30:ae:49:23:1a:f9:e3:77:dc:35:e2:ec:3d:1d:22
-----BEGIN CERTIFICATE-----
MIIB+DCCAZ8CFGnPgsZep3GThbzz6jQMqAJkxMn8MAoGCCqGSM49BAMCMIGLMQsw
CQYDVQQGEwJFUzELMAkGA1UECAwCTUExFDASBgNVBAcMC1RyZXMgQ2FudG9zMREw
DwYDVQQKDAhlUHJvc2ltYTEeMBwGA1UEAwwVZVByb3NpbWEgTWFpbiBUZXN0IENB
MSYwJAYJKoZIhvcNAQkBFhdyb3V0ZXJ0ZXN0QGVwcm9zaW1hLmNvbTAeFw0yMzEy
MjExNTU3MTZaFw0zMzEyMTgxNTU3MTZaMHIxCzAJBgNVBAYTAkVTMQswCQYDVQQI
DAJNQTERMA8GA1UECgwIZVByb3NpbWExGzAZBgNVBAMMEkJhY2tkb29yVGVzdFJv
dXRlcjEmMCQGCSqGSIb3DQEJARYXcm91dGVydGVzdEBlcHJvc2ltYS5jb20wWTAT
BgcqhkjOPQIBBggqhkjOPQMBBwNCAASHEuqvvLaw8/Y/lWefUbuuMp2V08WHYw3b
Cz4MdpjoNJxj2iG5AEnqr87/bbNZOQe1k1ordQXz6No7XWuw9n8GMAoGCCqGSM49
BAMCA0cAMEQCIEfwsQ02z1COu2luqDE5ujfMUG2sy8+2wLfJXk3YWpkFAiAQJWf6
1KLCyyh02UbP8ftwnzCuSSMa+eN33DXi7D0dIg==
-----END CERTIFICATE-----
