Certificate:
    Data:
        Version: 1 (0x0)
        Serial Number:
            20:c8:db:5e:dc:f2:72:70:b0:f8:d0:87:69:a9:ac:37:86:b5:92:13
        Signature Algorithm: ecdsa-with-SHA256
        Issuer: C=ES, ST=MA, L=Tres Cantos, O=eProsima, CN=eProsima Main Test CA/emailAddress=routertest@eprosima.com
        Validity
            Not Before: Dec 27 08:59:28 2023 GMT
            Not After : Dec 24 08:59:28 2033 GMT
        Subject: C=ES, ST=MA, O=eProsima, CN=BackdoorTestRouter/emailAddress=routertest@eprosima.com
        Subject Public Key Info:
            Public Key Algorithm: id-ecPublicKey
                Public-Key: (256 bit)
                pub:
                    04:2c:76:92:49:f3:0d:31:25:ec:9a:1f:de:8e:75:
                    65:3b:b3:21:db:db:b9:c0:83:01:90:0d:47:10:c9:
                    d7:2a:7e:ca:33:08:5e:1f:f1:c2:69:5a:8e:d2:bf:
                    2e:fc:3e:3b:11:19:34:1e:f2:b2:b2:be:08:a8:7b:
                    22:8c:4f:1f:ba
                ASN1 OID: prime256v1
                NIST CURVE: P-256
    Signature Algorithm: ecdsa-with-SHA256
    Signature Value:
        30:44:02:20:4b:95:8a:93:94:f6:6d:d3:08:9b:03:9b:49:2e:
        6c:ce:5a:fb:6c:3d:b2:12:7a:b1:63:e9:ef:20:3b:a4:75:36:
        02:20:14:bf:e6:a4:f3:04:29:76:05:5b:b8:85:82:39:98:80:
        e8:d7:64:8f:a1:ac:1d:91:a6:76:30:e7:9d:63:11:64
-----BEGIN CERTIFICATE-----
MIIB+DCCAZ8CFCDI217c8nJwsPjQh2mprDeGtZITMAoGCCqGSM49BAMCMIGLMQsw
CQYDVQQGEwJFUzELMAkGA1UECAwCTUExFDASBgNVBAcMC1RyZXMgQ2FudG9zMREw
DwYDVQQKDAhlUHJvc2ltYTEeMBwGA1UEAwwVZVByb3NpbWEgTWFpbiBUZXN0IENB
MSYwJAYJKoZIhvcNAQkBFhdyb3V0ZXJ0ZXN0QGVwcm9zaW1hLmNvbTAeFw0yMzEy
MjcwODU5MjhaFw0zMzEyMjQwODU5MjhaMHIxCzAJBgNVBAYTAkVTMQswCQYDVQQI
DAJNQTERMA8GA1UECgwIZVByb3NpbWExGzAZBgNVBAMMEkJhY2tkb29yVGVzdFJv
dXRlcjEmMCQGCSqGSIb3DQEJARYXcm91dGVydGVzdEBlcHJvc2ltYS5jb20wWTAT
BgcqhkjOPQIBBggqhkjOPQMBBwNCAAQsdpJJ8w0xJeyaH96OdWU7syHb27nAgwGQ
DUcQydcqfsozCF4f8cJpWo7Svy78PjsRGTQe8rKyvgioeyKMTx+6MAoGCCqGSM49
BAMCA0cAMEQCIEuVipOU9m3TCJsDm0kubM5a+2w9shJ6sWPp7yA7pHU2AiAUv+ak
8wQpdgVbuIWCOZiA6Ndkj6GsHZGmdjDnnWMRZA==
-----END CERTIFICATE-----
