Certificate:
    Data:
        Version: 1 (0x0)
        Serial Number:
            52:3d:9b:47:37:37:d8:87:97:cc:15:25:7c:32:07:43:6a:58:7a:30
        Signature Algorithm: ecdsa-with-SHA256
        Issuer: C=ES, ST=MA, L=Tres Cantos, O=eProsima, CN=eProsima Main Test CA/emailAddress=routertest@eprosima.com
        Validity
            Not Before: Jun 20 15:04:23 2023 GMT
            Not After : Jun 17 15:04:23 2033 GMT
        Subject: C=ES, ST=MA, O=eProsima, CN=BackdoorTestRouter/emailAddress=routertest@eprosima.com
        Subject Public Key Info:
            Public Key Algorithm: id-ecPublicKey
                Public-Key: (256 bit)
                pub:
                    04:88:6e:f4:63:83:27:5b:87:57:88:b7:3d:0c:ad:
                    db:5d:b5:cc:19:b1:26:57:c2:29:d1:85:87:fe:2e:
                    54:fc:d9:f3:d5:9f:b2:e3:be:5a:55:0e:5c:c4:6b:
                    03:5d:5e:89:67:e7:fe:4e:12:18:ec:ca:f0:5b:7b:
                    7c:69:63:ca:18
                ASN1 OID: prime256v1
                NIST CURVE: P-256
    Signature Algorithm: ecdsa-with-SHA256
    Signature Value:
        30:45:02:20:05:e6:00:21:ef:d2:c4:c0:58:e2:b9:4c:9c:fe:
        1d:87:c2:b1:5f:4c:42:67:85:89:87:ba:02:e2:fc:2d:82:f1:
        02:21:00:d0:f6:4d:2d:8a:68:00:2d:19:28:a3:a5:22:6d:19:
        be:8c:87:c0:29:25:9a:41:63:ba:0f:17:e8:04:5c:43:98
-----BEGIN CERTIFICATE-----
MIIB+TCCAZ8CFFI9m0c3N9iHl8wVJXwyB0NqWHowMAoGCCqGSM49BAMCMIGLMQsw
CQYDVQQGEwJFUzELMAkGA1UECAwCTUExFDASBgNVBAcMC1RyZXMgQ2FudG9zMREw
DwYDVQQKDAhlUHJvc2ltYTEeMBwGA1UEAwwVZVByb3NpbWEgTWFpbiBUZXN0IENB
MSYwJAYJKoZIhvcNAQkBFhdyb3V0ZXJ0ZXN0QGVwcm9zaW1hLmNvbTAeFw0yMzA2
MjAxNTA0MjNaFw0zMzA2MTcxNTA0MjNaMHIxCzAJBgNVBAYTAkVTMQswCQYDVQQI
DAJNQTERMA8GA1UECgwIZVByb3NpbWExGzAZBgNVBAMMEkJhY2tkb29yVGVzdFJv
dXRlcjEmMCQGCSqGSIb3DQEJARYXcm91dGVydGVzdEBlcHJvc2ltYS5jb20wWTAT
BgcqhkjOPQIBBggqhkjOPQMBBwNCAASIbvRjgydbh1eItz0MrdtdtcwZsSZXwinR
hYf+LlT82fPVn7LjvlpVDlzEawNdXoln5/5OEhjsyvBbe3xpY8oYMAoGCCqGSM49
BAMCA0gAMEUCIAXmACHv0sTAWOK5TJz+HYfCsV9MQmeFiYe6AuL8LYLxAiEA0PZN
LYpoAC0ZKKOlIm0ZvoyHwCklmkFjug8X6ARcQ5g=
-----END CERTIFICATE-----
