Certificate:
    Data:
        Version: 1 (0x0)
        Serial Number:
            18:f4:54:6c:ac:98:22:c5:d8:cb:08:e7:5e:d7:79:94:52:be:39:a1
        Signature Algorithm: ecdsa-with-SHA256
        Issuer: C=ES, ST=MA, L=Tres Cantos, O=eProsima, CN=eProsima Main Test CA/emailAddress=routertest@eprosima.com
        Validity
            Not Before: Apr 14 13:48:21 2026 GMT
            Not After : Apr 11 13:48:21 2036 GMT
        Subject: C=ES, ST=MA, O=eProsima, CN=BackdoorTestLocalPub3/emailAddress=routertest@eprosima.com
        Subject Public Key Info:
            Public Key Algorithm: id-ecPublicKey
                Public-Key: (256 bit)
                pub:
                    04:7a:e1:5e:f5:52:55:7f:6f:d2:d7:ba:aa:ac:80:
                    bc:c7:85:d4:56:e1:4e:65:03:e8:cb:b7:78:1e:0f:
                    a5:f9:f8:53:a4:3d:77:62:a6:bc:5a:3f:5e:b5:d7:
                    8f:af:9e:82:ea:8e:b0:a9:c0:e9:bd:ee:aa:7f:c2:
                    f7:c3:b4:67:09
                ASN1 OID: prime256v1
                NIST CURVE: P-256
    Signature Algorithm: ecdsa-with-SHA256
    Signature Value:
        30:45:02:20:5b:7f:77:58:3f:f8:a3:e9:be:23:74:6e:28:89:
        4c:f1:7b:d8:98:dd:67:6e:14:06:7c:af:11:43:ee:41:3b:9d:
        02:21:00:9c:ef:f8:e3:0e:18:5c:42:1e:05:d3:3c:0f:f5:f6:
        e8:fc:93:47:ef:b2:a4:fa:e2:af:59:f7:3c:11:85:a7:51
-----BEGIN CERTIFICATE-----
MIIB/DCCAaICFBj0VGysmCLF2MsI517XeZRSvjmhMAoGCCqGSM49BAMCMIGLMQsw
CQYDVQQGEwJFUzELMAkGA1UECAwCTUExFDASBgNVBAcMC1RyZXMgQ2FudG9zMREw
DwYDVQQKDAhlUHJvc2ltYTEeMBwGA1UEAwwVZVByb3NpbWEgTWFpbiBUZXN0IENB
MSYwJAYJKoZIhvcNAQkBFhdyb3V0ZXJ0ZXN0QGVwcm9zaW1hLmNvbTAeFw0yNjA0
MTQxMzQ4MjFaFw0zNjA0MTExMzQ4MjFaMHUxCzAJBgNVBAYTAkVTMQswCQYDVQQI
DAJNQTERMA8GA1UECgwIZVByb3NpbWExHjAcBgNVBAMMFUJhY2tkb29yVGVzdExv
Y2FsUHViMzEmMCQGCSqGSIb3DQEJARYXcm91dGVydGVzdEBlcHJvc2ltYS5jb20w
WTATBgcqhkjOPQIBBggqhkjOPQMBBwNCAAR64V71UlV/b9LXuqqsgLzHhdRW4U5l
A+jLt3geD6X5+FOkPXdiprxaP16114+vnoLqjrCpwOm97qp/wvfDtGcJMAoGCCqG
SM49BAMCA0gAMEUCIFt/d1g/+KPpviN0biiJTPF72JjdZ24UBnyvEUPuQTudAiEA
nO/44w4YXEIeBdM8D/X26PyTR++ypPrir1n3PBGFp1E=
-----END CERTIFICATE-----
