Certificate:
    Data:
        Version: 1 (0x0)
        Serial Number:
            1e:0d:65:dd:0f:62:50:6c:ec:7f:03:50:6f:13:c4:d2:cf:45:50:d5
        Signature Algorithm: ecdsa-with-SHA256
        Issuer: C=ES, ST=MA, L=Tres Cantos, O=eProsima, CN=eProsima Main Test CA/emailAddress=routertest@eprosima.com
        Validity
            Not Before: Dec 27 09:05:25 2023 GMT
            Not After : Dec 24 09:05:25 2033 GMT
        Subject: C=ES, ST=MA, O=eProsima, CN=BackdoorTestLocalSub0/emailAddress=routertest@eprosima.com
        Subject Public Key Info:
            Public Key Algorithm: id-ecPublicKey
                Public-Key: (256 bit)
                pub:
                    04:c9:87:4d:d3:af:1e:e2:81:77:b7:be:2b:29:5d:
                    4d:ca:f0:29:23:7a:83:19:8f:f2:ea:9a:86:8f:1d:
                    e9:7e:bb:1f:f1:f8:68:f2:1b:51:db:c6:92:a4:04:
                    e5:ac:49:29:97:1b:b3:c3:40:af:3d:31:f4:f0:85:
                    43:dd:ad:6e:f1
                ASN1 OID: prime256v1
                NIST CURVE: P-256
    Signature Algorithm: ecdsa-with-SHA256
    Signature Value:
        30:44:02:20:5e:05:c3:c8:e5:9d:56:2a:af:bd:de:73:55:c2:
        08:2f:01:5f:6c:53:fe:d4:51:91:29:d1:b0:bf:e5:1a:21:12:
        02:20:38:68:08:23:6a:6a:21:f5:ed:0e:18:38:df:9e:84:9d:
        0f:14:1a:5f:e3:9f:b2:53:3e:04:db:35:fd:17:7e:07
-----BEGIN CERTIFICATE-----
MIIB+zCCAaICFB4NZd0PYlBs7H8DUG8TxNLPRVDVMAoGCCqGSM49BAMCMIGLMQsw
CQYDVQQGEwJFUzELMAkGA1UECAwCTUExFDASBgNVBAcMC1RyZXMgQ2FudG9zMREw
DwYDVQQKDAhlUHJvc2ltYTEeMBwGA1UEAwwVZVByb3NpbWEgTWFpbiBUZXN0IENB
MSYwJAYJKoZIhvcNAQkBFhdyb3V0ZXJ0ZXN0QGVwcm9zaW1hLmNvbTAeFw0yMzEy
MjcwOTA1MjVaFw0zMzEyMjQwOTA1MjVaMHUxCzAJBgNVBAYTAkVTMQswCQYDVQQI
DAJNQTERMA8GA1UECgwIZVByb3NpbWExHjAcBgNVBAMMFUJhY2tkb29yVGVzdExv
Y2FsU3ViMDEmMCQGCSqGSIb3DQEJARYXcm91dGVydGVzdEBlcHJvc2ltYS5jb20w
WTATBgcqhkjOPQIBBggqhkjOPQMBBwNCAATJh03Trx7igXe3vispXU3K8CkjeoMZ
j/LqmoaPHel+ux/x+GjyG1HbxpKkBOWsSSmXG7PDQK89MfTwhUPdrW7xMAoGCCqG
SM49BAMCA0cAMEQCIF4Fw8jlnVYqr73ec1XCCC8BX2xT/tRRkSnRsL/lGiESAiA4
aAgjamoh9e0OGDjfnoSdDxQaX+OfslM+BNs1/Rd+Bw==
-----END CERTIFICATE-----
