Certificate:
    Data:
        Version: 1 (0x0)
        Serial Number:
            2e:4b:e1:b5:46:49:66:aa:c5:ca:a3:ac:fb:62:73:6e:55:63:13:ab
        Signature Algorithm: ecdsa-with-SHA256
        Issuer: C=ES, ST=MA, L=Tres Cantos, O=eProsima, CN=eProsima Main Test CA/emailAddress=routertest@eprosima.com
        Validity
            Not Before: Mar 24 10:33:13 2025 GMT
            Not After : Mar 22 10:33:13 2035 GMT
        Subject: C=ES, ST=MA, O=eProsima, CN=BackdoorTestLocalSub4/emailAddress=routertest@eprosima.com
        Subject Public Key Info:
            Public Key Algorithm: id-ecPublicKey
                Public-Key: (256 bit)
                pub:
                    04:8e:81:3e:9a:4c:2a:a4:61:d5:7e:9c:e8:d7:f1:
                    92:0d:a3:9b:87:e1:44:c8:9d:19:1b:8f:17:16:88:
                    6e:39:aa:39:a3:4d:d2:fd:ea:c4:ab:e9:5a:9f:ef:
                    f0:93:2f:b4:8b:9e:be:84:71:12:da:34:cd:48:bc:
                    33:9b:a5:79:62
                ASN1 OID: prime256v1
                NIST CURVE: P-256
    Signature Algorithm: ecdsa-with-SHA256
    Signature Value:
        30:45:02:21:00:d8:f6:41:93:77:c4:bb:bb:65:44:2b:82:23:
        bb:d7:81:e0:b9:dc:3a:48:73:90:27:6c:49:ce:d3:d9:cb:c2:
        f0:02:20:66:21:a1:5c:b7:38:cf:b3:75:61:25:d1:18:bf:4f:
        30:b7:11:03:bf:49:a4:ca:7f:0b:04:e5:27:47:c5:51:cf
-----BEGIN CERTIFICATE-----
MIIB/DCCAaICFC5L4bVGSWaqxcqjrPtic25VYxOrMAoGCCqGSM49BAMCMIGLMQsw
CQYDVQQGEwJFUzELMAkGA1UECAwCTUExFDASBgNVBAcMC1RyZXMgQ2FudG9zMREw
DwYDVQQKDAhlUHJvc2ltYTEeMBwGA1UEAwwVZVByb3NpbWEgTWFpbiBUZXN0IENB
MSYwJAYJKoZIhvcNAQkBFhdyb3V0ZXJ0ZXN0QGVwcm9zaW1hLmNvbTAeFw0yNTAz
MjQxMDMzMTNaFw0zNTAzMjIxMDMzMTNaMHUxCzAJBgNVBAYTAkVTMQswCQYDVQQI
DAJNQTERMA8GA1UECgwIZVByb3NpbWExHjAcBgNVBAMMFUJhY2tkb29yVGVzdExv
Y2FsU3ViNDEmMCQGCSqGSIb3DQEJARYXcm91dGVydGVzdEBlcHJvc2ltYS5jb20w
WTATBgcqhkjOPQIBBggqhkjOPQMBBwNCAASOgT6aTCqkYdV+nOjX8ZINo5uH4UTI
nRkbjxcWiG45qjmjTdL96sSr6Vqf7/CTL7SLnr6EcRLaNM1IvDObpXliMAoGCCqG
SM49BAMCA0gAMEUCIQDY9kGTd8S7u2VEK4Iju9eB4LncOkhzkCdsSc7T2cvC8AIg
ZiGhXLc4z7N1YSXRGL9PMLcRA79JpMp/CwTlJ0fFUc8=
-----END CERTIFICATE-----
