Certificate:
    Data:
        Version: 1 (0x0)
        Serial Number:
            2e:4b:e1:b5:46:49:66:aa:c5:ca:a3:ac:fb:62:73:6e:55:63:13:a6
        Signature Algorithm: ecdsa-with-SHA256
        Issuer: C=ES, ST=MA, L=Tres Cantos, O=eProsima, CN=eProsima Main Test CA/emailAddress=routertest@eprosima.com
        Validity
            Not Before: Mar 24 10:33:13 2025 GMT
            Not After : Mar 22 10:33:13 2035 GMT
        Subject: C=ES, ST=MA, O=eProsima, CN=BackdoorTestLocalPub4/emailAddress=routertest@eprosima.com
        Subject Public Key Info:
            Public Key Algorithm: id-ecPublicKey
                Public-Key: (256 bit)
                pub:
                    04:38:10:77:79:10:d3:1d:d9:53:6c:9e:5e:fb:70:
                    db:d4:55:e1:3d:c7:fe:0b:f3:44:86:73:bb:65:a7:
                    a5:58:36:0d:0e:4f:eb:a4:a3:bc:c3:65:e0:9e:c2:
                    0b:46:7f:6f:f9:3a:c2:ff:86:ed:44:d8:a4:e2:f7:
                    b9:1c:7f:71:a8
                ASN1 OID: prime256v1
                NIST CURVE: P-256
    Signature Algorithm: ecdsa-with-SHA256
    Signature Value:
        30:46:02:21:00:95:04:eb:9b:92:66:e7:37:c4:d9:f9:20:cf:
        fa:78:7c:40:8e:d3:9b:cb:cd:e2:72:55:ce:d2:0a:da:a5:d7:
        15:02:21:00:dd:f1:ed:fb:2f:c4:94:40:ca:79:3e:ad:df:56:
        c5:98:07:1e:96:c1:20:2e:6d:e5:f4:dc:72:06:af:26:48:60
-----BEGIN CERTIFICATE-----
MIIB/TCCAaICFC5L4bVGSWaqxcqjrPtic25VYxOmMAoGCCqGSM49BAMCMIGLMQsw
CQYDVQQGEwJFUzELMAkGA1UECAwCTUExFDASBgNVBAcMC1RyZXMgQ2FudG9zMREw
DwYDVQQKDAhlUHJvc2ltYTEeMBwGA1UEAwwVZVByb3NpbWEgTWFpbiBUZXN0IENB
MSYwJAYJKoZIhvcNAQkBFhdyb3V0ZXJ0ZXN0QGVwcm9zaW1hLmNvbTAeFw0yNTAz
MjQxMDMzMTNaFw0zNTAzMjIxMDMzMTNaMHUxCzAJBgNVBAYTAkVTMQswCQYDVQQI
DAJNQTERMA8GA1UECgwIZVByb3NpbWExHjAcBgNVBAMMFUJhY2tkb29yVGVzdExv
Y2FsUHViNDEmMCQGCSqGSIb3DQEJARYXcm91dGVydGVzdEBlcHJvc2ltYS5jb20w
WTATBgcqhkjOPQIBBggqhkjOPQMBBwNCAAQ4EHd5ENMd2VNsnl77cNvUVeE9x/4L
80SGc7tlp6VYNg0OT+uko7zDZeCewgtGf2/5OsL/hu1E2KTi97kcf3GoMAoGCCqG
SM49BAMCA0kAMEYCIQCVBOubkmbnN8TZ+SDP+nh8QI7Tm8vN4nJVztIK2qXXFQIh
AN3x7fsvxJRAynk+rd9WxZgHHpbBIC5t5fTccgavJkhg
-----END CERTIFICATE-----
