Certificate:
    Data:
        Version: 1 (0x0)
        Serial Number:
            2e:4b:e1:b5:46:49:66:aa:c5:ca:a3:ac:fb:62:73:6e:55:63:13:aa
        Signature Algorithm: ecdsa-with-SHA256
        Issuer: C=ES, ST=MA, L=Tres Cantos, O=eProsima, CN=eProsima Main Test CA/emailAddress=routertest@eprosima.com
        Validity
            Not Before: Mar 24 10:33:13 2025 GMT
            Not After : Mar 22 10:33:13 2035 GMT
        Subject: C=ES, ST=MA, O=eProsima, CN=BackdoorTestLocalSub3/emailAddress=routertest@eprosima.com
        Subject Public Key Info:
            Public Key Algorithm: id-ecPublicKey
                Public-Key: (256 bit)
                pub:
                    04:e2:38:8c:b9:39:a6:64:27:a9:ff:4a:20:45:d3:
                    9a:b3:7b:56:cd:6d:b2:b1:57:07:4d:e1:f8:29:62:
                    a3:d1:ff:67:7e:07:25:05:d0:ec:d6:63:2b:a3:fd:
                    23:72:14:95:25:99:b0:7b:6d:11:f7:33:e8:e1:43:
                    65:12:1d:54:0a
                ASN1 OID: prime256v1
                NIST CURVE: P-256
    Signature Algorithm: ecdsa-with-SHA256
    Signature Value:
        30:46:02:21:00:85:53:4c:2b:2b:15:fc:6c:fb:fe:b7:ed:3c:
        17:ab:1a:b2:7d:c4:6d:2b:3d:dd:05:a3:75:9d:10:02:76:a0:
        3d:02:21:00:89:16:1f:e5:9f:e5:0f:f1:10:35:26:3a:c4:3d:
        c7:a6:58:8c:a9:f6:fc:2f:98:6b:56:a8:29:17:f2:27:7e:b5
-----BEGIN CERTIFICATE-----
MIIB/TCCAaICFC5L4bVGSWaqxcqjrPtic25VYxOqMAoGCCqGSM49BAMCMIGLMQsw
CQYDVQQGEwJFUzELMAkGA1UECAwCTUExFDASBgNVBAcMC1RyZXMgQ2FudG9zMREw
DwYDVQQKDAhlUHJvc2ltYTEeMBwGA1UEAwwVZVByb3NpbWEgTWFpbiBUZXN0IENB
MSYwJAYJKoZIhvcNAQkBFhdyb3V0ZXJ0ZXN0QGVwcm9zaW1hLmNvbTAeFw0yNTAz
MjQxMDMzMTNaFw0zNTAzMjIxMDMzMTNaMHUxCzAJBgNVBAYTAkVTMQswCQYDVQQI
DAJNQTERMA8GA1UECgwIZVByb3NpbWExHjAcBgNVBAMMFUJhY2tkb29yVGVzdExv
Y2FsU3ViMzEmMCQGCSqGSIb3DQEJARYXcm91dGVydGVzdEBlcHJvc2ltYS5jb20w
WTATBgcqhkjOPQIBBggqhkjOPQMBBwNCAATiOIy5OaZkJ6n/SiBF05qze1bNbbKx
VwdN4fgpYqPR/2d+ByUF0OzWYyuj/SNyFJUlmbB7bRH3M+jhQ2USHVQKMAoGCCqG
SM49BAMCA0kAMEYCIQCFU0wrKxX8bPv+t+08F6sasn3EbSs93QWjdZ0QAnagPQIh
AIkWH+Wf5Q/xEDUmOsQ9x6ZYjKn2/C+Ya1aoKRfyJ361
-----END CERTIFICATE-----
