Certificate:
    Data:
        Version: 1 (0x0)
        Serial Number:
            1e:0d:65:dd:0f:62:50:6c:ec:7f:03:50:6f:13:c4:d2:cf:45:50:d8
        Signature Algorithm: ecdsa-with-SHA256
        Issuer: C=ES, ST=MA, L=Tres Cantos, O=eProsima, CN=eProsima Main Test CA/emailAddress=routertest@eprosima.com
        Validity
            Not Before: Dec 27 09:05:25 2023 GMT
            Not After : Dec 24 09:05:25 2033 GMT
        Subject: C=ES, ST=MA, O=eProsima, CN=BackdoorTestLocalSub4/emailAddress=routertest@eprosima.com
        Subject Public Key Info:
            Public Key Algorithm: id-ecPublicKey
                Public-Key: (256 bit)
                pub:
                    04:cd:bd:f8:dd:8f:42:71:58:50:04:f6:6b:83:85:
                    38:6b:dd:ef:68:bb:5d:5f:f6:76:2b:3c:2f:c9:59:
                    d3:3f:dc:c7:50:b1:29:68:14:b0:81:b2:0f:b5:d8:
                    c0:3a:bb:57:ff:80:64:a2:8a:20:15:14:09:e0:bd:
                    86:c2:da:72:e6
                ASN1 OID: prime256v1
                NIST CURVE: P-256
    Signature Algorithm: ecdsa-with-SHA256
    Signature Value:
        30:45:02:20:4e:d1:09:2e:12:88:df:16:71:a9:f9:6a:36:01:
        c5:5b:5b:ff:8f:df:86:f2:22:dd:cb:03:43:37:a0:a8:bf:ed:
        02:21:00:ac:0e:f8:86:6b:38:88:af:ed:bf:98:78:3c:42:3c:
        fd:f6:6a:df:b8:61:50:7e:33:12:d4:a2:fb:f0:d4:04:bc
-----BEGIN CERTIFICATE-----
MIIB/DCCAaICFB4NZd0PYlBs7H8DUG8TxNLPRVDYMAoGCCqGSM49BAMCMIGLMQsw
CQYDVQQGEwJFUzELMAkGA1UECAwCTUExFDASBgNVBAcMC1RyZXMgQ2FudG9zMREw
DwYDVQQKDAhlUHJvc2ltYTEeMBwGA1UEAwwVZVByb3NpbWEgTWFpbiBUZXN0IENB
MSYwJAYJKoZIhvcNAQkBFhdyb3V0ZXJ0ZXN0QGVwcm9zaW1hLmNvbTAeFw0yMzEy
MjcwOTA1MjVaFw0zMzEyMjQwOTA1MjVaMHUxCzAJBgNVBAYTAkVTMQswCQYDVQQI
DAJNQTERMA8GA1UECgwIZVByb3NpbWExHjAcBgNVBAMMFUJhY2tkb29yVGVzdExv
Y2FsU3ViNDEmMCQGCSqGSIb3DQEJARYXcm91dGVydGVzdEBlcHJvc2ltYS5jb20w
WTATBgcqhkjOPQIBBggqhkjOPQMBBwNCAATNvfjdj0JxWFAE9muDhThr3e9ou11f
9nYrPC/JWdM/3MdQsSloFLCBsg+12MA6u1f/gGSiiiAVFAngvYbC2nLmMAoGCCqG
SM49BAMCA0gAMEUCIE7RCS4SiN8Wcan5ajYBxVtb/4/fhvIi3csDQzegqL/tAiEA
rA74hms4iK/tv5h4PEI8/fZq37hhUH4zEtSi+/DUBLw=
-----END CERTIFICATE-----
