Certificate:
    Data:
        Version: 1 (0x0)
        Serial Number:
            42:91:43:29:c9:86:8d:9b:8a:a6:8c:24:bd:7a:6d:5e:df:ad:90:1c
        Signature Algorithm: ecdsa-with-SHA256
        Issuer: C=ES, ST=MA, L=Tres Cantos, O=eProsima, CN=eProsima Main Test CA/emailAddress=routertest@eprosima.com
        Validity
            Not Before: Dec 22 11:50:22 2023 GMT
            Not After : Dec 19 11:50:22 2033 GMT
        Subject: C=ES, ST=MA, O=eProsima, CN=BackdoorTestLocalPub1/emailAddress=routertest@eprosima.com
        Subject Public Key Info:
            Public Key Algorithm: id-ecPublicKey
                Public-Key: (256 bit)
                pub:
                    04:bb:45:3c:26:a2:ec:a2:61:75:26:d6:9e:f3:dc:
                    88:1d:8e:e9:f2:77:f6:71:20:0e:fc:51:fb:6a:48:
                    d3:d1:bf:95:d2:76:0e:b8:91:8e:2b:9b:20:98:88:
                    b9:5d:12:f3:d1:4d:a2:48:4d:a3:4b:42:b2:17:7e:
                    8c:03:b9:e0:c9
                ASN1 OID: prime256v1
                NIST CURVE: P-256
    Signature Algorithm: ecdsa-with-SHA256
    Signature Value:
        30:46:02:21:00:f7:df:98:85:fd:ed:97:a6:90:88:fb:57:43:
        c6:43:22:58:9b:f2:8d:86:01:e3:32:7a:85:a9:4a:9a:bb:ff:
        66:02:21:00:a1:d2:3c:6f:e2:19:f8:38:70:0a:30:6c:91:8a:
        e9:aa:8b:ba:7e:2c:9b:e1:c9:49:51:5d:04:e4:4a:5b:f4:25
-----BEGIN CERTIFICATE-----
MIIB/TCCAaICFEKRQynJho2biqaMJL16bV7frZAcMAoGCCqGSM49BAMCMIGLMQsw
CQYDVQQGEwJFUzELMAkGA1UECAwCTUExFDASBgNVBAcMC1RyZXMgQ2FudG9zMREw
DwYDVQQKDAhlUHJvc2ltYTEeMBwGA1UEAwwVZVByb3NpbWEgTWFpbiBUZXN0IENB
MSYwJAYJKoZIhvcNAQkBFhdyb3V0ZXJ0ZXN0QGVwcm9zaW1hLmNvbTAeFw0yMzEy
MjIxMTUwMjJaFw0zMzEyMTkxMTUwMjJaMHUxCzAJBgNVBAYTAkVTMQswCQYDVQQI
DAJNQTERMA8GA1UECgwIZVByb3NpbWExHjAcBgNVBAMMFUJhY2tkb29yVGVzdExv
Y2FsUHViMTEmMCQGCSqGSIb3DQEJARYXcm91dGVydGVzdEBlcHJvc2ltYS5jb20w
WTATBgcqhkjOPQIBBggqhkjOPQMBBwNCAAS7RTwmouyiYXUm1p7z3Igdjunyd/Zx
IA78UftqSNPRv5XSdg64kY4rmyCYiLldEvPRTaJITaNLQrIXfowDueDJMAoGCCqG
SM49BAMCA0kAMEYCIQD335iF/e2XppCI+1dDxkMiWJvyjYYB4zJ6halKmrv/ZgIh
AKHSPG/iGfg4cAowbJGK6aqLun4sm+HJSVFdBORKW/Ql
-----END CERTIFICATE-----
