Certificate:
    Data:
        Version: 1 (0x0)
        Serial Number:
            2e:4b:e1:b5:46:49:66:aa:c5:ca:a3:ac:fb:62:73:6e:55:63:13:a5
        Signature Algorithm: ecdsa-with-SHA256
        Issuer: C=ES, ST=MA, L=Tres Cantos, O=eProsima, CN=eProsima Main Test CA/emailAddress=routertest@eprosima.com
        Validity
            Not Before: Mar 24 10:33:13 2025 GMT
            Not After : Mar 22 10:33:13 2035 GMT
        Subject: C=ES, ST=MA, O=eProsima, CN=BackdoorTestLocalPub3/emailAddress=routertest@eprosima.com
        Subject Public Key Info:
            Public Key Algorithm: id-ecPublicKey
                Public-Key: (256 bit)
                pub:
                    04:da:7b:e3:0c:6f:47:c6:ec:02:2d:f4:69:6a:3b:
                    80:df:95:31:0c:19:41:8c:c8:a0:f5:94:59:bb:30:
                    9b:17:7d:48:94:35:8a:90:a6:af:db:2d:17:89:c8:
                    a2:f9:6b:19:cf:4a:55:05:7b:ae:1f:93:05:8e:62:
                    b0:a8:4f:46:a5
                ASN1 OID: prime256v1
                NIST CURVE: P-256
    Signature Algorithm: ecdsa-with-SHA256
    Signature Value:
        30:46:02:21:00:9d:d6:e1:d8:95:7a:c7:26:29:49:90:c2:ba:
        40:d7:8e:81:4b:8b:e8:8f:78:f5:55:91:fd:6b:ed:53:f2:92:
        2e:02:21:00:86:45:c9:5b:6a:b6:87:da:a8:4f:2c:3a:ec:2a:
        21:05:b8:4c:4d:3d:0b:e8:4e:4e:cb:b9:6c:de:45:15:52:8a
-----BEGIN CERTIFICATE-----
MIIB/TCCAaICFC5L4bVGSWaqxcqjrPtic25VYxOlMAoGCCqGSM49BAMCMIGLMQsw
CQYDVQQGEwJFUzELMAkGA1UECAwCTUExFDASBgNVBAcMC1RyZXMgQ2FudG9zMREw
DwYDVQQKDAhlUHJvc2ltYTEeMBwGA1UEAwwVZVByb3NpbWEgTWFpbiBUZXN0IENB
MSYwJAYJKoZIhvcNAQkBFhdyb3V0ZXJ0ZXN0QGVwcm9zaW1hLmNvbTAeFw0yNTAz
MjQxMDMzMTNaFw0zNTAzMjIxMDMzMTNaMHUxCzAJBgNVBAYTAkVTMQswCQYDVQQI
DAJNQTERMA8GA1UECgwIZVByb3NpbWExHjAcBgNVBAMMFUJhY2tkb29yVGVzdExv
Y2FsUHViMzEmMCQGCSqGSIb3DQEJARYXcm91dGVydGVzdEBlcHJvc2ltYS5jb20w
WTATBgcqhkjOPQIBBggqhkjOPQMBBwNCAATae+MMb0fG7AIt9GlqO4DflTEMGUGM
yKD1lFm7MJsXfUiUNYqQpq/bLReJyKL5axnPSlUFe64fkwWOYrCoT0alMAoGCCqG
SM49BAMCA0kAMEYCIQCd1uHYlXrHJilJkMK6QNeOgUuL6I949VWR/WvtU/KSLgIh
AIZFyVtqtofaqE8sOuwqIQW4TE09C+hOTsu5bN5FFVKK
-----END CERTIFICATE-----
