Certificate:
    Data:
        Version: 1 (0x0)
        Serial Number:
            42:91:43:29:c9:86:8d:9b:8a:a6:8c:24:bd:7a:6d:5e:df:ad:90:1e
        Signature Algorithm: ecdsa-with-SHA256
        Issuer: C=ES, ST=MA, L=Tres Cantos, O=eProsima, CN=eProsima Main Test CA/emailAddress=routertest@eprosima.com
        Validity
            Not Before: Dec 22 11:50:22 2023 GMT
            Not After : Dec 19 11:50:22 2033 GMT
        Subject: C=ES, ST=MA, O=eProsima, CN=BackdoorTestLocalPub4/emailAddress=routertest@eprosima.com
        Subject Public Key Info:
            Public Key Algorithm: id-ecPublicKey
                Public-Key: (256 bit)
                pub:
                    04:35:5e:1f:47:c8:55:92:b2:07:ef:05:43:22:81:
                    d5:25:17:25:96:a1:d2:09:5f:40:c4:df:b8:d9:2f:
                    df:1d:bc:6e:be:d0:c6:41:17:6d:5c:3c:50:d1:ca:
                    d4:10:c6:86:64:f1:70:51:17:41:b0:0f:90:8f:21:
                    05:1f:96:08:3b
                ASN1 OID: prime256v1
                NIST CURVE: P-256
    Signature Algorithm: ecdsa-with-SHA256
    Signature Value:
        30:45:02:20:65:c8:a7:ce:99:dc:58:49:7c:d6:ba:20:66:5e:
        a8:4a:bc:79:fe:34:01:22:4a:a5:6b:06:5c:bf:02:f3:1e:6c:
        02:21:00:bb:4b:4d:a4:73:4e:d7:88:20:61:42:d2:6e:65:ed:
        1c:20:87:98:a8:48:23:65:c5:2b:96:d8:7d:7c:07:f1:7b
-----BEGIN CERTIFICATE-----
MIIB/DCCAaICFEKRQynJho2biqaMJL16bV7frZAeMAoGCCqGSM49BAMCMIGLMQsw
CQYDVQQGEwJFUzELMAkGA1UECAwCTUExFDASBgNVBAcMC1RyZXMgQ2FudG9zMREw
DwYDVQQKDAhlUHJvc2ltYTEeMBwGA1UEAwwVZVByb3NpbWEgTWFpbiBUZXN0IENB
MSYwJAYJKoZIhvcNAQkBFhdyb3V0ZXJ0ZXN0QGVwcm9zaW1hLmNvbTAeFw0yMzEy
MjIxMTUwMjJaFw0zMzEyMTkxMTUwMjJaMHUxCzAJBgNVBAYTAkVTMQswCQYDVQQI
DAJNQTERMA8GA1UECgwIZVByb3NpbWExHjAcBgNVBAMMFUJhY2tkb29yVGVzdExv
Y2FsUHViNDEmMCQGCSqGSIb3DQEJARYXcm91dGVydGVzdEBlcHJvc2ltYS5jb20w
WTATBgcqhkjOPQIBBggqhkjOPQMBBwNCAAQ1Xh9HyFWSsgfvBUMigdUlFyWWodIJ
X0DE37jZL98dvG6+0MZBF21cPFDRytQQxoZk8XBRF0GwD5CPIQUflgg7MAoGCCqG
SM49BAMCA0gAMEUCIGXIp86Z3FhJfNa6IGZeqEq8ef40ASJKpWsGXL8C8x5sAiEA
u0tNpHNO14ggYULSbmXtHCCHmKhII2XFK5bYfXwH8Xs=
-----END CERTIFICATE-----
