Certificate:
    Data:
        Version: 1 (0x0)
        Serial Number:
            42:91:43:29:c9:86:8d:9b:8a:a6:8c:24:bd:7a:6d:5e:df:ad:90:24
        Signature Algorithm: ecdsa-with-SHA256
        Issuer: C=ES, ST=MA, L=Tres Cantos, O=eProsima, CN=eProsima Main Test CA/emailAddress=routertest@eprosima.com
        Validity
            Not Before: Dec 22 11:50:22 2023 GMT
            Not After : Dec 19 11:50:22 2033 GMT
        Subject: C=ES, ST=MA, O=eProsima, CN=BackdoorTestLocalSub5/emailAddress=routertest@eprosima.com
        Subject Public Key Info:
            Public Key Algorithm: id-ecPublicKey
                Public-Key: (256 bit)
                pub:
                    04:b3:80:82:1f:cb:d0:69:cc:cb:35:5d:05:65:44:
                    49:68:fc:c1:2c:14:50:87:ad:e5:f4:f1:f3:ea:a3:
                    0d:2c:09:bd:80:20:ce:c9:69:a3:30:6e:b9:eb:0e:
                    22:43:39:ff:53:8a:43:4f:2f:33:03:fd:82:6c:ad:
                    b4:3e:69:5c:7b
                ASN1 OID: prime256v1
                NIST CURVE: P-256
    Signature Algorithm: ecdsa-with-SHA256
    Signature Value:
        30:45:02:20:65:d4:d9:58:73:6d:73:83:a7:49:8e:24:b7:64:
        db:81:23:c3:c5:52:a1:e3:21:bd:d1:74:26:92:13:9c:bd:b4:
        02:21:00:e3:2c:10:b7:16:55:f8:c7:63:83:2c:0f:94:f5:9e:
        40:10:15:0f:10:6b:0a:76:c7:46:12:9e:2e:21:6e:34:5b
-----BEGIN CERTIFICATE-----
MIIB/DCCAaICFEKRQynJho2biqaMJL16bV7frZAkMAoGCCqGSM49BAMCMIGLMQsw
CQYDVQQGEwJFUzELMAkGA1UECAwCTUExFDASBgNVBAcMC1RyZXMgQ2FudG9zMREw
DwYDVQQKDAhlUHJvc2ltYTEeMBwGA1UEAwwVZVByb3NpbWEgTWFpbiBUZXN0IENB
MSYwJAYJKoZIhvcNAQkBFhdyb3V0ZXJ0ZXN0QGVwcm9zaW1hLmNvbTAeFw0yMzEy
MjIxMTUwMjJaFw0zMzEyMTkxMTUwMjJaMHUxCzAJBgNVBAYTAkVTMQswCQYDVQQI
DAJNQTERMA8GA1UECgwIZVByb3NpbWExHjAcBgNVBAMMFUJhY2tkb29yVGVzdExv
Y2FsU3ViNTEmMCQGCSqGSIb3DQEJARYXcm91dGVydGVzdEBlcHJvc2ltYS5jb20w
WTATBgcqhkjOPQIBBggqhkjOPQMBBwNCAASzgIIfy9BpzMs1XQVlRElo/MEsFFCH
reX08fPqow0sCb2AIM7JaaMwbrnrDiJDOf9TikNPLzMD/YJsrbQ+aVx7MAoGCCqG
SM49BAMCA0gAMEUCIGXU2VhzbXODp0mOJLdk24Ejw8VSoeMhvdF0JpITnL20AiEA
4ywQtxZV+MdjgywPlPWeQBAVDxBrCnbHRhKeLiFuNFs=
-----END CERTIFICATE-----
