Certificate:
    Data:
        Version: 1 (0x0)
        Serial Number:
            1e:0d:65:dd:0f:62:50:6c:ec:7f:03:50:6f:13:c4:d2:cf:45:50:d1
        Signature Algorithm: ecdsa-with-SHA256
        Issuer: C=ES, ST=MA, L=Tres Cantos, O=eProsima, CN=eProsima Main Test CA/emailAddress=routertest@eprosima.com
        Validity
            Not Before: Dec 27 09:05:25 2023 GMT
            Not After : Dec 24 09:05:25 2033 GMT
        Subject: C=ES, ST=MA, O=eProsima, CN=BackdoorTestLocalPub1/emailAddress=routertest@eprosima.com
        Subject Public Key Info:
            Public Key Algorithm: id-ecPublicKey
                Public-Key: (256 bit)
                pub:
                    04:da:5d:14:53:2d:55:01:14:12:20:0f:a1:3e:f8:
                    86:85:35:d1:5d:cd:60:58:e4:65:52:09:4e:53:0b:
                    9d:c9:d0:13:8a:00:72:50:b3:46:48:0e:1d:11:51:
                    47:de:54:19:ab:bc:76:3b:96:8a:28:d6:89:24:a1:
                    68:f4:15:61:53
                ASN1 OID: prime256v1
                NIST CURVE: P-256
    Signature Algorithm: ecdsa-with-SHA256
    Signature Value:
        30:46:02:21:00:97:db:34:07:f0:e1:48:53:80:86:38:c8:70:
        fe:cf:79:8f:be:11:41:9c:75:ee:9a:96:33:46:ed:01:60:50:
        f9:02:21:00:b0:5b:1c:7c:c3:41:40:da:4c:73:03:ec:2f:8d:
        37:bc:72:e2:4b:0d:9d:aa:35:9e:9e:64:89:ab:86:e3:6f:be
-----BEGIN CERTIFICATE-----
MIIB/TCCAaICFB4NZd0PYlBs7H8DUG8TxNLPRVDRMAoGCCqGSM49BAMCMIGLMQsw
CQYDVQQGEwJFUzELMAkGA1UECAwCTUExFDASBgNVBAcMC1RyZXMgQ2FudG9zMREw
DwYDVQQKDAhlUHJvc2ltYTEeMBwGA1UEAwwVZVByb3NpbWEgTWFpbiBUZXN0IENB
MSYwJAYJKoZIhvcNAQkBFhdyb3V0ZXJ0ZXN0QGVwcm9zaW1hLmNvbTAeFw0yMzEy
MjcwOTA1MjVaFw0zMzEyMjQwOTA1MjVaMHUxCzAJBgNVBAYTAkVTMQswCQYDVQQI
DAJNQTERMA8GA1UECgwIZVByb3NpbWExHjAcBgNVBAMMFUJhY2tkb29yVGVzdExv
Y2FsUHViMTEmMCQGCSqGSIb3DQEJARYXcm91dGVydGVzdEBlcHJvc2ltYS5jb20w
WTATBgcqhkjOPQIBBggqhkjOPQMBBwNCAATaXRRTLVUBFBIgD6E++IaFNdFdzWBY
5GVSCU5TC53J0BOKAHJQs0ZIDh0RUUfeVBmrvHY7looo1okkoWj0FWFTMAoGCCqG
SM49BAMCA0kAMEYCIQCX2zQH8OFIU4CGOMhw/s95j74RQZx17pqWM0btAWBQ+QIh
ALBbHHzDQUDaTHMD7C+NN7xy4ksNnao1np5kiauG42++
-----END CERTIFICATE-----
