Certificate:
    Data:
        Version: 1 (0x0)
        Serial Number:
            2e:4b:e1:b5:46:49:66:aa:c5:ca:a3:ac:fb:62:73:6e:55:63:13:a7
        Signature Algorithm: ecdsa-with-SHA256
        Issuer: C=ES, ST=MA, L=Tres Cantos, O=eProsima, CN=eProsima Main Test CA/emailAddress=routertest@eprosima.com
        Validity
            Not Before: Mar 24 10:33:13 2025 GMT
            Not After : Mar 22 10:33:13 2035 GMT
        Subject: C=ES, ST=MA, O=eProsima, CN=BackdoorTestLocalPub5/emailAddress=routertest@eprosima.com
        Subject Public Key Info:
            Public Key Algorithm: id-ecPublicKey
                Public-Key: (256 bit)
                pub:
                    04:97:27:82:64:3c:56:cf:af:f2:bc:e3:72:b6:5e:
                    99:9b:70:14:b5:73:41:ef:6d:e6:1b:57:ef:f2:b9:
                    c9:bf:97:81:b8:93:e6:de:5b:1a:ec:2f:e7:09:2c:
                    24:5c:0d:f7:6f:79:3b:8f:ef:58:d3:11:8e:6d:c2:
                    ef:96:93:1f:c8
                ASN1 OID: prime256v1
                NIST CURVE: P-256
    Signature Algorithm: ecdsa-with-SHA256
    Signature Value:
        30:44:02:20:6f:0a:b6:0a:0d:cf:5e:03:ac:a9:80:3a:d5:78:
        7c:e3:78:1e:a9:b0:cd:df:e5:b1:32:da:0a:92:10:5c:a7:38:
        02:20:40:30:ef:ea:9d:a6:bc:89:55:90:d9:14:e1:a8:5f:c3:
        c2:63:b5:b9:9e:ce:0a:a9:75:72:6a:63:42:a4:4d:ca
-----BEGIN CERTIFICATE-----
MIIB+zCCAaICFC5L4bVGSWaqxcqjrPtic25VYxOnMAoGCCqGSM49BAMCMIGLMQsw
CQYDVQQGEwJFUzELMAkGA1UECAwCTUExFDASBgNVBAcMC1RyZXMgQ2FudG9zMREw
DwYDVQQKDAhlUHJvc2ltYTEeMBwGA1UEAwwVZVByb3NpbWEgTWFpbiBUZXN0IENB
MSYwJAYJKoZIhvcNAQkBFhdyb3V0ZXJ0ZXN0QGVwcm9zaW1hLmNvbTAeFw0yNTAz
MjQxMDMzMTNaFw0zNTAzMjIxMDMzMTNaMHUxCzAJBgNVBAYTAkVTMQswCQYDVQQI
DAJNQTERMA8GA1UECgwIZVByb3NpbWExHjAcBgNVBAMMFUJhY2tkb29yVGVzdExv
Y2FsUHViNTEmMCQGCSqGSIb3DQEJARYXcm91dGVydGVzdEBlcHJvc2ltYS5jb20w
WTATBgcqhkjOPQIBBggqhkjOPQMBBwNCAASXJ4JkPFbPr/K843K2XpmbcBS1c0Hv
beYbV+/yucm/l4G4k+beWxrsL+cJLCRcDfdveTuP71jTEY5twu+Wkx/IMAoGCCqG
SM49BAMCA0cAMEQCIG8KtgoNz14DrKmAOtV4fON4Hqmwzd/lsTLaCpIQXKc4AiBA
MO/qnaa8iVWQ2RThqF/DwmO1uZ7OCql1cmpjQqRNyg==
-----END CERTIFICATE-----
