Certificate:
    Data:
        Version: 1 (0x0)
        Serial Number:
            42:91:43:29:c9:86:8d:9b:8a:a6:8c:24:bd:7a:6d:5e:df:ad:90:1f
        Signature Algorithm: ecdsa-with-SHA256
        Issuer: C=ES, ST=MA, L=Tres Cantos, O=eProsima, CN=eProsima Main Test CA/emailAddress=routertest@eprosima.com
        Validity
            Not Before: Dec 22 11:50:22 2023 GMT
            Not After : Dec 19 11:50:22 2033 GMT
        Subject: C=ES, ST=MA, O=eProsima, CN=BackdoorTestLocalPub5/emailAddress=routertest@eprosima.com
        Subject Public Key Info:
            Public Key Algorithm: id-ecPublicKey
                Public-Key: (256 bit)
                pub:
                    04:5f:56:99:ba:fb:85:ed:2a:4a:1e:71:16:ce:62:
                    e1:2d:22:63:18:85:53:60:3a:95:72:22:db:57:9f:
                    04:33:81:7c:8d:70:73:78:fe:78:59:55:57:87:a5:
                    7a:7d:9a:80:72:fb:d8:02:a7:44:45:fd:84:1e:54:
                    94:c2:39:5b:c4
                ASN1 OID: prime256v1
                NIST CURVE: P-256
    Signature Algorithm: ecdsa-with-SHA256
    Signature Value:
        30:45:02:21:00:ca:fd:76:46:ba:8e:4c:1b:1a:a9:80:98:e5:
        39:fa:0c:b2:30:0c:1e:c5:f6:4e:86:ab:03:8b:25:b3:ab:63:
        ec:02:20:76:93:e1:a3:b5:f3:0e:14:9a:97:41:2a:99:49:8b:
        a1:bc:fc:21:3d:7f:69:d3:dc:69:4f:9b:bc:cb:9f:8d:02
-----BEGIN CERTIFICATE-----
MIIB/DCCAaICFEKRQynJho2biqaMJL16bV7frZAfMAoGCCqGSM49BAMCMIGLMQsw
CQYDVQQGEwJFUzELMAkGA1UECAwCTUExFDASBgNVBAcMC1RyZXMgQ2FudG9zMREw
DwYDVQQKDAhlUHJvc2ltYTEeMBwGA1UEAwwVZVByb3NpbWEgTWFpbiBUZXN0IENB
MSYwJAYJKoZIhvcNAQkBFhdyb3V0ZXJ0ZXN0QGVwcm9zaW1hLmNvbTAeFw0yMzEy
MjIxMTUwMjJaFw0zMzEyMTkxMTUwMjJaMHUxCzAJBgNVBAYTAkVTMQswCQYDVQQI
DAJNQTERMA8GA1UECgwIZVByb3NpbWExHjAcBgNVBAMMFUJhY2tkb29yVGVzdExv
Y2FsUHViNTEmMCQGCSqGSIb3DQEJARYXcm91dGVydGVzdEBlcHJvc2ltYS5jb20w
WTATBgcqhkjOPQIBBggqhkjOPQMBBwNCAARfVpm6+4XtKkoecRbOYuEtImMYhVNg
OpVyIttXnwQzgXyNcHN4/nhZVVeHpXp9moBy+9gCp0RF/YQeVJTCOVvEMAoGCCqG
SM49BAMCA0gAMEUCIQDK/XZGuo5MGxqpgJjlOfoMsjAMHsX2ToarA4sls6tj7AIg
dpPho7XzDhSal0EqmUmLobz8IT1/adPcaU+bvMufjQI=
-----END CERTIFICATE-----
