Certificate:
    Data:
        Version: 1 (0x0)
        Serial Number:
            18:f4:54:6c:ac:98:22:c5:d8:cb:08:e7:5e:d7:79:94:52:be:39:a3
        Signature Algorithm: ecdsa-with-SHA256
        Issuer: C=ES, ST=MA, L=Tres Cantos, O=eProsima, CN=eProsima Main Test CA/emailAddress=routertest@eprosima.com
        Validity
            Not Before: Apr 14 13:48:21 2026 GMT
            Not After : Apr 11 13:48:21 2036 GMT
        Subject: C=ES, ST=MA, O=eProsima, CN=BackdoorTestLocalPub5/emailAddress=routertest@eprosima.com
        Subject Public Key Info:
            Public Key Algorithm: id-ecPublicKey
                Public-Key: (256 bit)
                pub:
                    04:60:23:68:6f:17:fa:f9:c5:b4:26:c1:f8:9e:c3:
                    55:a0:a5:bc:1d:f8:15:ee:ef:54:ad:40:b6:62:dc:
                    86:6f:70:89:e0:11:f9:e4:df:f6:62:55:ce:33:e4:
                    74:97:88:d5:dd:fe:d7:63:a5:c2:3a:f6:ab:5e:99:
                    d2:26:f0:2d:34
                ASN1 OID: prime256v1
                NIST CURVE: P-256
    Signature Algorithm: ecdsa-with-SHA256
    Signature Value:
        30:45:02:20:62:ab:1f:10:65:62:d3:23:6c:0c:60:f4:7c:24:
        cf:1c:37:e7:eb:b8:ab:17:31:23:86:74:b8:84:f1:c6:14:ba:
        02:21:00:a3:2f:e8:3c:b1:07:fc:6f:22:57:05:8e:c3:5c:de:
        49:a5:3a:07:f5:0c:05:98:98:c9:c4:34:8a:04:bd:c5:1e
-----BEGIN CERTIFICATE-----
MIIB/DCCAaICFBj0VGysmCLF2MsI517XeZRSvjmjMAoGCCqGSM49BAMCMIGLMQsw
CQYDVQQGEwJFUzELMAkGA1UECAwCTUExFDASBgNVBAcMC1RyZXMgQ2FudG9zMREw
DwYDVQQKDAhlUHJvc2ltYTEeMBwGA1UEAwwVZVByb3NpbWEgTWFpbiBUZXN0IENB
MSYwJAYJKoZIhvcNAQkBFhdyb3V0ZXJ0ZXN0QGVwcm9zaW1hLmNvbTAeFw0yNjA0
MTQxMzQ4MjFaFw0zNjA0MTExMzQ4MjFaMHUxCzAJBgNVBAYTAkVTMQswCQYDVQQI
DAJNQTERMA8GA1UECgwIZVByb3NpbWExHjAcBgNVBAMMFUJhY2tkb29yVGVzdExv
Y2FsUHViNTEmMCQGCSqGSIb3DQEJARYXcm91dGVydGVzdEBlcHJvc2ltYS5jb20w
WTATBgcqhkjOPQIBBggqhkjOPQMBBwNCAARgI2hvF/r5xbQmwfiew1Wgpbwd+BXu
71StQLZi3IZvcIngEfnk3/ZiVc4z5HSXiNXd/tdjpcI69qtemdIm8C00MAoGCCqG
SM49BAMCA0gAMEUCIGKrHxBlYtMjbAxg9Hwkzxw35+u4qxcxI4Z0uITxxhS6AiEA
oy/oPLEH/G8iVwWOw1zeSaU6B/UMBZiYycQ0igS9xR4=
-----END CERTIFICATE-----
