Certificate:
    Data:
        Version: 1 (0x0)
        Serial Number:
            1e:0d:65:dd:0f:62:50:6c:ec:7f:03:50:6f:13:c4:d2:cf:45:50:d6
        Signature Algorithm: ecdsa-with-SHA256
        Issuer: C=ES, ST=MA, L=Tres Cantos, O=eProsima, CN=eProsima Main Test CA/emailAddress=routertest@eprosima.com
        Validity
            Not Before: Dec 27 09:05:25 2023 GMT
            Not After : Dec 24 09:05:25 2033 GMT
        Subject: C=ES, ST=MA, O=eProsima, CN=BackdoorTestLocalSub2/emailAddress=routertest@eprosima.com
        Subject Public Key Info:
            Public Key Algorithm: id-ecPublicKey
                Public-Key: (256 bit)
                pub:
                    04:04:dc:a8:9d:c4:93:b2:db:10:df:ea:3f:d4:dc:
                    59:d7:89:3f:f5:85:ea:e9:f1:bf:57:8c:27:94:6e:
                    3f:4a:63:16:40:5c:8e:f5:1d:4a:6f:f2:ab:42:ff:
                    d6:2f:f7:5b:b9:21:60:26:e4:a5:41:b7:19:6a:2b:
                    6f:df:8c:ee:76
                ASN1 OID: prime256v1
                NIST CURVE: P-256
    Signature Algorithm: ecdsa-with-SHA256
    Signature Value:
        30:45:02:21:00:fb:e6:32:45:8b:ff:c5:f4:b9:3e:71:14:a4:
        a2:f2:2b:91:8d:4d:bf:02:76:4f:6d:57:a3:8e:b6:73:d6:80:
        90:02:20:37:c1:ef:4c:dd:d3:96:36:b0:d8:75:b8:fa:c1:58:
        f4:6e:9e:50:be:4f:69:3d:2d:6c:f6:2a:87:f9:13:ad:ec
-----BEGIN CERTIFICATE-----
MIIB/DCCAaICFB4NZd0PYlBs7H8DUG8TxNLPRVDWMAoGCCqGSM49BAMCMIGLMQsw
CQYDVQQGEwJFUzELMAkGA1UECAwCTUExFDASBgNVBAcMC1RyZXMgQ2FudG9zMREw
DwYDVQQKDAhlUHJvc2ltYTEeMBwGA1UEAwwVZVByb3NpbWEgTWFpbiBUZXN0IENB
MSYwJAYJKoZIhvcNAQkBFhdyb3V0ZXJ0ZXN0QGVwcm9zaW1hLmNvbTAeFw0yMzEy
MjcwOTA1MjVaFw0zMzEyMjQwOTA1MjVaMHUxCzAJBgNVBAYTAkVTMQswCQYDVQQI
DAJNQTERMA8GA1UECgwIZVByb3NpbWExHjAcBgNVBAMMFUJhY2tkb29yVGVzdExv
Y2FsU3ViMjEmMCQGCSqGSIb3DQEJARYXcm91dGVydGVzdEBlcHJvc2ltYS5jb20w
WTATBgcqhkjOPQIBBggqhkjOPQMBBwNCAAQE3KidxJOy2xDf6j/U3FnXiT/1herp
8b9XjCeUbj9KYxZAXI71HUpv8qtC/9Yv91u5IWAm5KVBtxlqK2/fjO52MAoGCCqG
SM49BAMCA0gAMEUCIQD75jJFi//F9Lk+cRSkovIrkY1NvwJ2T21Xo462c9aAkAIg
N8HvTN3Tljaw2HW4+sFY9G6eUL5PaT0tbPYqh/kTrew=
-----END CERTIFICATE-----
