Certificate:
    Data:
        Version: 1 (0x0)
        Serial Number:
            1e:0d:65:dd:0f:62:50:6c:ec:7f:03:50:6f:13:c4:d2:cf:45:50:d7
        Signature Algorithm: ecdsa-with-SHA256
        Issuer: C=ES, ST=MA, L=Tres Cantos, O=eProsima, CN=eProsima Main Test CA/emailAddress=routertest@eprosima.com
        Validity
            Not Before: Dec 27 09:05:25 2023 GMT
            Not After : Dec 24 09:05:25 2033 GMT
        Subject: C=ES, ST=MA, O=eProsima, CN=BackdoorTestLocalSub3/emailAddress=routertest@eprosima.com
        Subject Public Key Info:
            Public Key Algorithm: id-ecPublicKey
                Public-Key: (256 bit)
                pub:
                    04:c4:ad:ab:e2:3f:23:e0:40:3b:3f:00:02:76:fd:
                    9a:9c:c4:2e:5a:98:0a:c8:5d:9f:03:57:df:56:b8:
                    d2:82:20:d9:7e:4d:e5:06:66:a0:c9:00:73:4c:95:
                    59:bb:64:f2:59:5a:23:44:1d:99:5e:d3:c8:a2:f8:
                    2d:87:1b:dd:2c
                ASN1 OID: prime256v1
                NIST CURVE: P-256
    Signature Algorithm: ecdsa-with-SHA256
    Signature Value:
        30:45:02:21:00:ff:da:97:a7:d6:30:53:d0:98:25:5d:85:5e:
        7e:c3:98:ff:93:09:c7:43:17:93:d9:fe:65:63:ab:53:94:65:
        73:02:20:69:51:4f:f5:c2:51:8d:b4:97:1d:b1:0f:b6:96:30:
        f7:cb:90:b2:05:26:52:b8:14:ae:ba:ef:60:25:45:8c:fc
-----BEGIN CERTIFICATE-----
MIIB/DCCAaICFB4NZd0PYlBs7H8DUG8TxNLPRVDXMAoGCCqGSM49BAMCMIGLMQsw
CQYDVQQGEwJFUzELMAkGA1UECAwCTUExFDASBgNVBAcMC1RyZXMgQ2FudG9zMREw
DwYDVQQKDAhlUHJvc2ltYTEeMBwGA1UEAwwVZVByb3NpbWEgTWFpbiBUZXN0IENB
MSYwJAYJKoZIhvcNAQkBFhdyb3V0ZXJ0ZXN0QGVwcm9zaW1hLmNvbTAeFw0yMzEy
MjcwOTA1MjVaFw0zMzEyMjQwOTA1MjVaMHUxCzAJBgNVBAYTAkVTMQswCQYDVQQI
DAJNQTERMA8GA1UECgwIZVByb3NpbWExHjAcBgNVBAMMFUJhY2tkb29yVGVzdExv
Y2FsU3ViMzEmMCQGCSqGSIb3DQEJARYXcm91dGVydGVzdEBlcHJvc2ltYS5jb20w
WTATBgcqhkjOPQIBBggqhkjOPQMBBwNCAATEraviPyPgQDs/AAJ2/ZqcxC5amArI
XZ8DV99WuNKCINl+TeUGZqDJAHNMlVm7ZPJZWiNEHZle08ii+C2HG90sMAoGCCqG
SM49BAMCA0gAMEUCIQD/2pen1jBT0JglXYVefsOY/5MJx0MXk9n+ZWOrU5RlcwIg
aVFP9cJRjbSXHbEPtpYw98uQsgUmUrgUrrrvYCVFjPw=
-----END CERTIFICATE-----
