Certificate:
    Data:
        Version: 1 (0x0)
        Serial Number:
            1e:0d:65:dd:0f:62:50:6c:ec:7f:03:50:6f:13:c4:d2:cf:45:50:d4
        Signature Algorithm: ecdsa-with-SHA256
        Issuer: C=ES, ST=MA, L=Tres Cantos, O=eProsima, CN=eProsima Main Test CA/emailAddress=routertest@eprosima.com
        Validity
            Not Before: Dec 27 09:05:25 2023 GMT
            Not After : Dec 24 09:05:25 2033 GMT
        Subject: C=ES, ST=MA, O=eProsima, CN=BackdoorTestLocalPub5/emailAddress=routertest@eprosima.com
        Subject Public Key Info:
            Public Key Algorithm: id-ecPublicKey
                Public-Key: (256 bit)
                pub:
                    04:8a:e4:13:db:ed:84:ef:4c:8a:5f:c5:3f:16:77:
                    cf:7f:fb:08:ea:5d:3a:9b:0c:a9:2a:50:0b:0e:bb:
                    3c:df:c7:25:90:50:7a:36:52:a2:fb:3a:ad:83:ff:
                    6e:7b:80:5d:3a:be:dc:c1:ba:f2:45:13:9e:6a:40:
                    de:e4:bd:b9:ab
                ASN1 OID: prime256v1
                NIST CURVE: P-256
    Signature Algorithm: ecdsa-with-SHA256
    Signature Value:
        30:46:02:21:00:cc:9a:ba:fd:96:57:64:eb:e7:4d:3a:01:a9:
        77:a0:7d:2c:54:4f:a3:33:60:8e:91:e4:69:03:80:11:29:ef:
        f9:02:21:00:e3:2a:eb:c7:30:29:b1:75:be:58:0e:b3:3c:1d:
        57:b6:67:f5:35:cf:de:f7:9a:3c:36:73:89:5d:4e:f4:56:39
-----BEGIN CERTIFICATE-----
MIIB/TCCAaICFB4NZd0PYlBs7H8DUG8TxNLPRVDUMAoGCCqGSM49BAMCMIGLMQsw
CQYDVQQGEwJFUzELMAkGA1UECAwCTUExFDASBgNVBAcMC1RyZXMgQ2FudG9zMREw
DwYDVQQKDAhlUHJvc2ltYTEeMBwGA1UEAwwVZVByb3NpbWEgTWFpbiBUZXN0IENB
MSYwJAYJKoZIhvcNAQkBFhdyb3V0ZXJ0ZXN0QGVwcm9zaW1hLmNvbTAeFw0yMzEy
MjcwOTA1MjVaFw0zMzEyMjQwOTA1MjVaMHUxCzAJBgNVBAYTAkVTMQswCQYDVQQI
DAJNQTERMA8GA1UECgwIZVByb3NpbWExHjAcBgNVBAMMFUJhY2tkb29yVGVzdExv
Y2FsUHViNTEmMCQGCSqGSIb3DQEJARYXcm91dGVydGVzdEBlcHJvc2ltYS5jb20w
WTATBgcqhkjOPQIBBggqhkjOPQMBBwNCAASK5BPb7YTvTIpfxT8Wd89/+wjqXTqb
DKkqUAsOuzzfxyWQUHo2UqL7Oq2D/257gF06vtzBuvJFE55qQN7kvbmrMAoGCCqG
SM49BAMCA0kAMEYCIQDMmrr9lldk6+dNOgGpd6B9LFRPozNgjpHkaQOAESnv+QIh
AOMq68cwKbF1vlgOszwdV7Zn9TXP3veaPDZziV1O9FY5
-----END CERTIFICATE-----
