Certificate:
    Data:
        Version: 1 (0x0)
        Serial Number:
            42:91:43:29:c9:86:8d:9b:8a:a6:8c:24:bd:7a:6d:5e:df:ad:90:23
        Signature Algorithm: ecdsa-with-SHA256
        Issuer: C=ES, ST=MA, L=Tres Cantos, O=eProsima, CN=eProsima Main Test CA/emailAddress=routertest@eprosima.com
        Validity
            Not Before: Dec 22 11:50:22 2023 GMT
            Not After : Dec 19 11:50:22 2033 GMT
        Subject: C=ES, ST=MA, O=eProsima, CN=BackdoorTestLocalSub4/emailAddress=routertest@eprosima.com
        Subject Public Key Info:
            Public Key Algorithm: id-ecPublicKey
                Public-Key: (256 bit)
                pub:
                    04:57:1c:ce:ea:35:c6:32:71:7d:f7:74:86:a6:10:
                    69:43:b9:e9:e6:2d:6e:13:94:dd:a8:a6:5e:b7:94:
                    46:c8:5f:e8:e0:79:04:0f:9b:a8:b2:2b:ca:b2:3f:
                    bf:f1:40:36:37:de:8e:b3:b3:8e:a7:99:9b:fd:ee:
                    9a:b6:8c:79:31
                ASN1 OID: prime256v1
                NIST CURVE: P-256
    Signature Algorithm: ecdsa-with-SHA256
    Signature Value:
        30:44:02:20:2b:7f:f4:10:8a:3b:89:d0:60:79:59:55:48:eb:
        e1:43:3c:b2:0c:68:93:01:08:27:98:0d:75:ed:65:85:e6:c6:
        02:20:49:55:46:33:cf:b8:74:d1:32:96:a9:37:69:32:86:df:
        13:fa:b7:ac:ac:aa:33:bb:cc:88:d5:8d:d0:83:4e:d3
-----BEGIN CERTIFICATE-----
MIIB+zCCAaICFEKRQynJho2biqaMJL16bV7frZAjMAoGCCqGSM49BAMCMIGLMQsw
CQYDVQQGEwJFUzELMAkGA1UECAwCTUExFDASBgNVBAcMC1RyZXMgQ2FudG9zMREw
DwYDVQQKDAhlUHJvc2ltYTEeMBwGA1UEAwwVZVByb3NpbWEgTWFpbiBUZXN0IENB
MSYwJAYJKoZIhvcNAQkBFhdyb3V0ZXJ0ZXN0QGVwcm9zaW1hLmNvbTAeFw0yMzEy
MjIxMTUwMjJaFw0zMzEyMTkxMTUwMjJaMHUxCzAJBgNVBAYTAkVTMQswCQYDVQQI
DAJNQTERMA8GA1UECgwIZVByb3NpbWExHjAcBgNVBAMMFUJhY2tkb29yVGVzdExv
Y2FsU3ViNDEmMCQGCSqGSIb3DQEJARYXcm91dGVydGVzdEBlcHJvc2ltYS5jb20w
WTATBgcqhkjOPQIBBggqhkjOPQMBBwNCAARXHM7qNcYycX33dIamEGlDuenmLW4T
lN2opl63lEbIX+jgeQQPm6iyK8qyP7/xQDY33o6zs46nmZv97pq2jHkxMAoGCCqG
SM49BAMCA0cAMEQCICt/9BCKO4nQYHlZVUjr4UM8sgxokwEIJ5gNde1lhebGAiBJ
VUYzz7h00TKWqTdpMobfE/q3rKyqM7vMiNWN0INO0w==
-----END CERTIFICATE-----
