Certificate:
    Data:
        Version: 1 (0x0)
        Serial Number:
            42:91:43:29:c9:86:8d:9b:8a:a6:8c:24:bd:7a:6d:5e:df:ad:90:21
        Signature Algorithm: ecdsa-with-SHA256
        Issuer: C=ES, ST=MA, L=Tres Cantos, O=eProsima, CN=eProsima Main Test CA/emailAddress=routertest@eprosima.com
        Validity
            Not Before: Dec 22 11:50:22 2023 GMT
            Not After : Dec 19 11:50:22 2033 GMT
        Subject: C=ES, ST=MA, O=eProsima, CN=BackdoorTestLocalSub2/emailAddress=routertest@eprosima.com
        Subject Public Key Info:
            Public Key Algorithm: id-ecPublicKey
                Public-Key: (256 bit)
                pub:
                    04:d2:ad:8c:af:35:37:cb:2e:eb:26:17:f3:a6:55:
                    b3:88:91:f6:0a:75:56:1d:5e:29:c9:5c:30:80:2f:
                    72:2b:8d:d9:8f:b5:74:35:e6:84:28:94:53:55:24:
                    cd:a0:a4:13:34:da:d1:08:d3:84:78:6f:fe:b4:5c:
                    10:e7:83:d4:d9
                ASN1 OID: prime256v1
                NIST CURVE: P-256
    Signature Algorithm: ecdsa-with-SHA256
    Signature Value:
        30:46:02:21:00:b8:cc:6a:d0:17:74:b7:69:36:89:a1:70:02:
        20:3e:1d:2a:32:83:7e:b9:27:8a:e9:d4:9b:ce:19:16:bd:46:
        8e:02:21:00:d6:ed:5f:58:ac:ee:17:dd:04:31:4a:02:25:39:
        66:a4:09:ef:2a:e1:38:b7:ea:6d:d9:45:95:66:a3:5c:2b:2e
-----BEGIN CERTIFICATE-----
MIIB/TCCAaICFEKRQynJho2biqaMJL16bV7frZAhMAoGCCqGSM49BAMCMIGLMQsw
CQYDVQQGEwJFUzELMAkGA1UECAwCTUExFDASBgNVBAcMC1RyZXMgQ2FudG9zMREw
DwYDVQQKDAhlUHJvc2ltYTEeMBwGA1UEAwwVZVByb3NpbWEgTWFpbiBUZXN0IENB
MSYwJAYJKoZIhvcNAQkBFhdyb3V0ZXJ0ZXN0QGVwcm9zaW1hLmNvbTAeFw0yMzEy
MjIxMTUwMjJaFw0zMzEyMTkxMTUwMjJaMHUxCzAJBgNVBAYTAkVTMQswCQYDVQQI
DAJNQTERMA8GA1UECgwIZVByb3NpbWExHjAcBgNVBAMMFUJhY2tkb29yVGVzdExv
Y2FsU3ViMjEmMCQGCSqGSIb3DQEJARYXcm91dGVydGVzdEBlcHJvc2ltYS5jb20w
WTATBgcqhkjOPQIBBggqhkjOPQMBBwNCAATSrYyvNTfLLusmF/OmVbOIkfYKdVYd
XinJXDCAL3IrjdmPtXQ15oQolFNVJM2gpBM02tEI04R4b/60XBDng9TZMAoGCCqG
SM49BAMCA0kAMEYCIQC4zGrQF3S3aTaJoXACID4dKjKDfrkniunUm84ZFr1GjgIh
ANbtX1is7hfdBDFKAiU5ZqQJ7yrhOLfqbdlFlWajXCsu
-----END CERTIFICATE-----
