Certificate:
    Data:
        Version: 1 (0x0)
        Serial Number:
            18:f4:54:6c:ac:98:22:c5:d8:cb:08:e7:5e:d7:79:94:52:be:39:a6
        Signature Algorithm: ecdsa-with-SHA256
        Issuer: C=ES, ST=MA, L=Tres Cantos, O=eProsima, CN=eProsima Main Test CA/emailAddress=routertest@eprosima.com
        Validity
            Not Before: Apr 14 13:48:21 2026 GMT
            Not After : Apr 11 13:48:21 2036 GMT
        Subject: C=ES, ST=MA, O=eProsima, CN=BackdoorTestLocalSub3/emailAddress=routertest@eprosima.com
        Subject Public Key Info:
            Public Key Algorithm: id-ecPublicKey
                Public-Key: (256 bit)
                pub:
                    04:08:06:5d:85:46:27:b1:72:13:30:b2:fc:64:26:
                    a1:39:83:8f:a8:81:72:e4:fa:75:1d:1b:dc:f5:b7:
                    04:64:cc:2b:24:4c:75:bc:cb:e8:99:e8:32:e1:24:
                    de:69:33:70:29:ca:e7:a8:67:98:cf:c6:f9:e2:5b:
                    b0:25:0f:ed:82
                ASN1 OID: prime256v1
                NIST CURVE: P-256
    Signature Algorithm: ecdsa-with-SHA256
    Signature Value:
        30:44:02:20:23:34:7a:c8:8d:12:c7:51:37:4c:2f:40:79:cd:
        02:47:78:84:1a:b8:0b:4a:e3:2b:53:15:6b:e9:72:af:bc:6d:
        02:20:03:ae:a0:22:2b:75:fe:e2:6d:3e:e9:8a:ad:7c:01:90:
        41:4f:65:49:47:9b:1b:ec:55:8b:24:d2:97:36:06:97
-----BEGIN CERTIFICATE-----
MIIB+zCCAaICFBj0VGysmCLF2MsI517XeZRSvjmmMAoGCCqGSM49BAMCMIGLMQsw
CQYDVQQGEwJFUzELMAkGA1UECAwCTUExFDASBgNVBAcMC1RyZXMgQ2FudG9zMREw
DwYDVQQKDAhlUHJvc2ltYTEeMBwGA1UEAwwVZVByb3NpbWEgTWFpbiBUZXN0IENB
MSYwJAYJKoZIhvcNAQkBFhdyb3V0ZXJ0ZXN0QGVwcm9zaW1hLmNvbTAeFw0yNjA0
MTQxMzQ4MjFaFw0zNjA0MTExMzQ4MjFaMHUxCzAJBgNVBAYTAkVTMQswCQYDVQQI
DAJNQTERMA8GA1UECgwIZVByb3NpbWExHjAcBgNVBAMMFUJhY2tkb29yVGVzdExv
Y2FsU3ViMzEmMCQGCSqGSIb3DQEJARYXcm91dGVydGVzdEBlcHJvc2ltYS5jb20w
WTATBgcqhkjOPQIBBggqhkjOPQMBBwNCAAQIBl2FRiexchMwsvxkJqE5g4+ogXLk
+nUdG9z1twRkzCskTHW8y+iZ6DLhJN5pM3ApyueoZ5jPxvniW7AlD+2CMAoGCCqG
SM49BAMCA0cAMEQCICM0esiNEsdRN0wvQHnNAkd4hBq4C0rjK1MVa+lyr7xtAiAD
rqAiK3X+4m0+6YqtfAGQQU9lSUebG+xViyTSlzYGlw==
-----END CERTIFICATE-----
