Certificate:
    Data:
        Version: 1 (0x0)
        Serial Number:
            1e:0d:65:dd:0f:62:50:6c:ec:7f:03:50:6f:13:c4:d2:cf:45:50:d9
        Signature Algorithm: ecdsa-with-SHA256
        Issuer: C=ES, ST=MA, L=Tres Cantos, O=eProsima, CN=eProsima Main Test CA/emailAddress=routertest@eprosima.com
        Validity
            Not Before: Dec 27 09:05:25 2023 GMT
            Not After : Dec 24 09:05:25 2033 GMT
        Subject: C=ES, ST=MA, O=eProsima, CN=BackdoorTestLocalSub5/emailAddress=routertest@eprosima.com
        Subject Public Key Info:
            Public Key Algorithm: id-ecPublicKey
                Public-Key: (256 bit)
                pub:
                    04:15:c0:f5:d3:fb:5a:63:ad:b2:9f:c0:e4:fa:8f:
                    5c:a0:3a:f0:c7:6a:37:86:f8:2c:ce:4d:d1:c2:a4:
                    04:c3:24:03:cd:67:ee:06:ef:a6:9e:5e:2a:ed:bf:
                    20:10:48:01:79:33:b2:1e:29:d9:c9:5c:19:55:6b:
                    2f:39:ac:80:89
                ASN1 OID: prime256v1
                NIST CURVE: P-256
    Signature Algorithm: ecdsa-with-SHA256
    Signature Value:
        30:44:02:20:0e:88:03:16:85:5a:b7:c8:92:09:7f:53:c3:f6:
        87:c4:82:56:73:0a:b5:fc:03:15:2b:2b:f3:0f:af:a0:dc:5a:
        02:20:69:12:bf:f5:a8:4e:87:c5:e5:28:8d:fc:b1:19:12:8b:
        4a:ec:59:70:bb:77:fc:64:ac:b7:22:53:ed:38:1c:61
-----BEGIN CERTIFICATE-----
MIIB+zCCAaICFB4NZd0PYlBs7H8DUG8TxNLPRVDZMAoGCCqGSM49BAMCMIGLMQsw
CQYDVQQGEwJFUzELMAkGA1UECAwCTUExFDASBgNVBAcMC1RyZXMgQ2FudG9zMREw
DwYDVQQKDAhlUHJvc2ltYTEeMBwGA1UEAwwVZVByb3NpbWEgTWFpbiBUZXN0IENB
MSYwJAYJKoZIhvcNAQkBFhdyb3V0ZXJ0ZXN0QGVwcm9zaW1hLmNvbTAeFw0yMzEy
MjcwOTA1MjVaFw0zMzEyMjQwOTA1MjVaMHUxCzAJBgNVBAYTAkVTMQswCQYDVQQI
DAJNQTERMA8GA1UECgwIZVByb3NpbWExHjAcBgNVBAMMFUJhY2tkb29yVGVzdExv
Y2FsU3ViNTEmMCQGCSqGSIb3DQEJARYXcm91dGVydGVzdEBlcHJvc2ltYS5jb20w
WTATBgcqhkjOPQIBBggqhkjOPQMBBwNCAAQVwPXT+1pjrbKfwOT6j1ygOvDHajeG
+CzOTdHCpATDJAPNZ+4G76aeXirtvyAQSAF5M7IeKdnJXBlVay85rICJMAoGCCqG
SM49BAMCA0cAMEQCIA6IAxaFWrfIkgl/U8P2h8SCVnMKtfwDFSsr8w+voNxaAiBp
Er/1qE6HxeUojfyxGRKLSuxZcLt3/GSstyJT7TgcYQ==
-----END CERTIFICATE-----
