Certificate:
    Data:
        Version: 1 (0x0)
        Serial Number:
            2e:4b:e1:b5:46:49:66:aa:c5:ca:a3:ac:fb:62:73:6e:55:63:13:a9
        Signature Algorithm: ecdsa-with-SHA256
        Issuer: C=ES, ST=MA, L=Tres Cantos, O=eProsima, CN=eProsima Main Test CA/emailAddress=routertest@eprosima.com
        Validity
            Not Before: Mar 24 10:33:13 2025 GMT
            Not After : Mar 22 10:33:13 2035 GMT
        Subject: C=ES, ST=MA, O=eProsima, CN=BackdoorTestLocalSub2/emailAddress=routertest@eprosima.com
        Subject Public Key Info:
            Public Key Algorithm: id-ecPublicKey
                Public-Key: (256 bit)
                pub:
                    04:1e:3e:cf:c3:be:15:19:5c:1d:be:0e:a9:2f:18:
                    b8:03:ee:b9:20:83:46:47:a5:3a:7e:77:a8:a9:11:
                    67:37:91:17:8b:3e:de:cf:73:e2:58:f6:bd:7d:1e:
                    03:73:26:24:26:e9:65:de:93:a1:61:48:3e:e5:26:
                    17:c8:8e:2c:c0
                ASN1 OID: prime256v1
                NIST CURVE: P-256
    Signature Algorithm: ecdsa-with-SHA256
    Signature Value:
        30:46:02:21:00:87:e9:09:5e:3c:b1:3d:bc:d5:4c:c7:a2:e5:
        99:8f:0a:32:de:e6:47:cc:ac:d2:88:b0:0f:83:58:90:d6:df:
        f5:02:21:00:db:6b:21:79:d1:32:c5:3f:5e:17:33:f2:d0:d8:
        d6:5b:d8:0d:c8:88:8f:55:ae:da:e8:08:59:0c:e6:6b:8d:3f
-----BEGIN CERTIFICATE-----
MIIB/TCCAaICFC5L4bVGSWaqxcqjrPtic25VYxOpMAoGCCqGSM49BAMCMIGLMQsw
CQYDVQQGEwJFUzELMAkGA1UECAwCTUExFDASBgNVBAcMC1RyZXMgQ2FudG9zMREw
DwYDVQQKDAhlUHJvc2ltYTEeMBwGA1UEAwwVZVByb3NpbWEgTWFpbiBUZXN0IENB
MSYwJAYJKoZIhvcNAQkBFhdyb3V0ZXJ0ZXN0QGVwcm9zaW1hLmNvbTAeFw0yNTAz
MjQxMDMzMTNaFw0zNTAzMjIxMDMzMTNaMHUxCzAJBgNVBAYTAkVTMQswCQYDVQQI
DAJNQTERMA8GA1UECgwIZVByb3NpbWExHjAcBgNVBAMMFUJhY2tkb29yVGVzdExv
Y2FsU3ViMjEmMCQGCSqGSIb3DQEJARYXcm91dGVydGVzdEBlcHJvc2ltYS5jb20w
WTATBgcqhkjOPQIBBggqhkjOPQMBBwNCAAQePs/DvhUZXB2+DqkvGLgD7rkgg0ZH
pTp+d6ipEWc3kReLPt7Pc+JY9r19HgNzJiQm6WXek6FhSD7lJhfIjizAMAoGCCqG
SM49BAMCA0kAMEYCIQCH6QlePLE9vNVMx6LlmY8KMt7mR8ys0oiwD4NYkNbf9QIh
ANtrIXnRMsU/Xhcz8tDY1lvYDciIj1Wu2ugIWQzma40/
-----END CERTIFICATE-----
