Certificate:
    Data:
        Version: 1 (0x0)
        Serial Number:
            42:91:43:29:c9:86:8d:9b:8a:a6:8c:24:bd:7a:6d:5e:df:ad:90:22
        Signature Algorithm: ecdsa-with-SHA256
        Issuer: C=ES, ST=MA, L=Tres Cantos, O=eProsima, CN=eProsima Main Test CA/emailAddress=routertest@eprosima.com
        Validity
            Not Before: Dec 22 11:50:22 2023 GMT
            Not After : Dec 19 11:50:22 2033 GMT
        Subject: C=ES, ST=MA, O=eProsima, CN=BackdoorTestLocalSub3/emailAddress=routertest@eprosima.com
        Subject Public Key Info:
            Public Key Algorithm: id-ecPublicKey
                Public-Key: (256 bit)
                pub:
                    04:b9:6c:96:df:f8:55:e4:b3:9b:32:1a:74:8e:2b:
                    3d:9b:d9:1b:61:d9:d6:61:ad:28:1b:3c:ac:18:14:
                    70:32:2b:c7:93:d8:47:f9:b8:6e:c7:e1:5b:66:81:
                    27:3b:b9:f9:50:0b:44:e2:f7:25:e3:54:4c:4a:2f:
                    75:7d:b2:f1:43
                ASN1 OID: prime256v1
                NIST CURVE: P-256
    Signature Algorithm: ecdsa-with-SHA256
    Signature Value:
        30:46:02:21:00:f3:f2:4c:01:fb:92:7b:42:51:13:de:7c:1b:
        4b:2e:19:66:3e:e9:a3:e1:c3:95:3f:33:3b:e8:7b:8e:6a:f7:
        c5:02:21:00:ba:4a:e2:a7:09:24:f7:04:0c:1d:40:e2:91:2d:
        ca:8f:17:45:02:b8:a9:11:9a:28:f2:9f:e2:66:8c:6e:00:79
-----BEGIN CERTIFICATE-----
MIIB/TCCAaICFEKRQynJho2biqaMJL16bV7frZAiMAoGCCqGSM49BAMCMIGLMQsw
CQYDVQQGEwJFUzELMAkGA1UECAwCTUExFDASBgNVBAcMC1RyZXMgQ2FudG9zMREw
DwYDVQQKDAhlUHJvc2ltYTEeMBwGA1UEAwwVZVByb3NpbWEgTWFpbiBUZXN0IENB
MSYwJAYJKoZIhvcNAQkBFhdyb3V0ZXJ0ZXN0QGVwcm9zaW1hLmNvbTAeFw0yMzEy
MjIxMTUwMjJaFw0zMzEyMTkxMTUwMjJaMHUxCzAJBgNVBAYTAkVTMQswCQYDVQQI
DAJNQTERMA8GA1UECgwIZVByb3NpbWExHjAcBgNVBAMMFUJhY2tkb29yVGVzdExv
Y2FsU3ViMzEmMCQGCSqGSIb3DQEJARYXcm91dGVydGVzdEBlcHJvc2ltYS5jb20w
WTATBgcqhkjOPQIBBggqhkjOPQMBBwNCAAS5bJbf+FXks5syGnSOKz2b2Rth2dZh
rSgbPKwYFHAyK8eT2Ef5uG7H4VtmgSc7uflQC0Ti9yXjVExKL3V9svFDMAoGCCqG
SM49BAMCA0kAMEYCIQDz8kwB+5J7QlET3nwbSy4ZZj7po+HDlT8zO+h7jmr3xQIh
ALpK4qcJJPcEDB1A4pEtyo8XRQK4qRGaKPKf4maMbgB5
-----END CERTIFICATE-----
