Certificate:
    Data:
        Version: 1 (0x0)
        Serial Number:
            2e:4b:e1:b5:46:49:66:aa:c5:ca:a3:ac:fb:62:73:6e:55:63:13:a8
        Signature Algorithm: ecdsa-with-SHA256
        Issuer: C=ES, ST=MA, L=Tres Cantos, O=eProsima, CN=eProsima Main Test CA/emailAddress=routertest@eprosima.com
        Validity
            Not Before: Mar 24 10:33:13 2025 GMT
            Not After : Mar 22 10:33:13 2035 GMT
        Subject: C=ES, ST=MA, O=eProsima, CN=BackdoorTestLocalSub0/emailAddress=routertest@eprosima.com
        Subject Public Key Info:
            Public Key Algorithm: id-ecPublicKey
                Public-Key: (256 bit)
                pub:
                    04:28:d2:e0:55:58:a5:78:92:ba:8e:15:82:9c:ef:
                    9d:83:28:5d:82:5b:f9:b3:5d:04:b0:05:dd:48:69:
                    1f:a6:5f:a6:d4:ff:a3:a8:44:29:55:a2:00:f6:70:
                    1a:dc:40:7d:dc:49:82:bb:08:ad:0d:ec:3e:0d:2b:
                    a2:59:2a:d4:d5
                ASN1 OID: prime256v1
                NIST CURVE: P-256
    Signature Algorithm: ecdsa-with-SHA256
    Signature Value:
        30:46:02:21:00:82:af:ae:a2:74:46:77:24:5c:9c:48:1d:22:
        61:18:f8:3a:be:6b:b1:eb:e8:4c:b0:2c:1e:59:22:b6:10:b7:
        c1:02:21:00:bc:22:1e:9c:69:c2:33:f8:53:24:9d:8a:99:ff:
        05:6c:31:c7:83:df:3b:19:7a:a2:12:a7:b8:36:ec:79:6d:ea
-----BEGIN CERTIFICATE-----
MIIB/TCCAaICFC5L4bVGSWaqxcqjrPtic25VYxOoMAoGCCqGSM49BAMCMIGLMQsw
CQYDVQQGEwJFUzELMAkGA1UECAwCTUExFDASBgNVBAcMC1RyZXMgQ2FudG9zMREw
DwYDVQQKDAhlUHJvc2ltYTEeMBwGA1UEAwwVZVByb3NpbWEgTWFpbiBUZXN0IENB
MSYwJAYJKoZIhvcNAQkBFhdyb3V0ZXJ0ZXN0QGVwcm9zaW1hLmNvbTAeFw0yNTAz
MjQxMDMzMTNaFw0zNTAzMjIxMDMzMTNaMHUxCzAJBgNVBAYTAkVTMQswCQYDVQQI
DAJNQTERMA8GA1UECgwIZVByb3NpbWExHjAcBgNVBAMMFUJhY2tkb29yVGVzdExv
Y2FsU3ViMDEmMCQGCSqGSIb3DQEJARYXcm91dGVydGVzdEBlcHJvc2ltYS5jb20w
WTATBgcqhkjOPQIBBggqhkjOPQMBBwNCAAQo0uBVWKV4krqOFYKc752DKF2CW/mz
XQSwBd1IaR+mX6bU/6OoRClVogD2cBrcQH3cSYK7CK0N7D4NK6JZKtTVMAoGCCqG
SM49BAMCA0kAMEYCIQCCr66idEZ3JFycSB0iYRj4Or5rsevoTLAsHlkithC3wQIh
ALwiHpxpwjP4UySdipn/BWwxx4PfOxl6ohKnuDbseW3q
-----END CERTIFICATE-----
