Certificate:
    Data:
        Version: 1 (0x0)
        Serial Number:
            18:f4:54:6c:ac:98:22:c5:d8:cb:08:e7:5e:d7:79:94:52:be:39:a8
        Signature Algorithm: ecdsa-with-SHA256
        Issuer: C=ES, ST=MA, L=Tres Cantos, O=eProsima, CN=eProsima Main Test CA/emailAddress=routertest@eprosima.com
        Validity
            Not Before: Apr 14 13:48:21 2026 GMT
            Not After : Apr 11 13:48:21 2036 GMT
        Subject: C=ES, ST=MA, O=eProsima, CN=BackdoorTestLocalSub5/emailAddress=routertest@eprosima.com
        Subject Public Key Info:
            Public Key Algorithm: id-ecPublicKey
                Public-Key: (256 bit)
                pub:
                    04:43:7d:65:cd:99:34:1c:b7:ab:8b:33:70:9e:5d:
                    59:31:b6:80:1e:62:0e:17:25:6f:83:4a:d1:86:2f:
                    70:41:75:91:a2:8f:f1:5f:b7:16:89:00:dc:7e:cd:
                    44:97:30:db:6d:4f:3d:13:f9:d7:af:61:39:5f:21:
                    a1:fd:13:20:3c
                ASN1 OID: prime256v1
                NIST CURVE: P-256
    Signature Algorithm: ecdsa-with-SHA256
    Signature Value:
        30:44:02:20:17:c2:17:19:7f:56:c2:2e:f8:7d:09:fa:d4:b0:
        e6:9f:17:13:96:8c:ec:8f:8b:b2:9e:74:6e:64:49:2b:3c:55:
        02:20:6e:6d:ce:98:3e:7c:d9:1b:69:f6:6f:89:49:aa:c8:52:
        e0:a2:79:dd:93:cc:f9:cc:ee:2f:3a:6d:97:a0:86:a4
-----BEGIN CERTIFICATE-----
MIIB+zCCAaICFBj0VGysmCLF2MsI517XeZRSvjmoMAoGCCqGSM49BAMCMIGLMQsw
CQYDVQQGEwJFUzELMAkGA1UECAwCTUExFDASBgNVBAcMC1RyZXMgQ2FudG9zMREw
DwYDVQQKDAhlUHJvc2ltYTEeMBwGA1UEAwwVZVByb3NpbWEgTWFpbiBUZXN0IENB
MSYwJAYJKoZIhvcNAQkBFhdyb3V0ZXJ0ZXN0QGVwcm9zaW1hLmNvbTAeFw0yNjA0
MTQxMzQ4MjFaFw0zNjA0MTExMzQ4MjFaMHUxCzAJBgNVBAYTAkVTMQswCQYDVQQI
DAJNQTERMA8GA1UECgwIZVByb3NpbWExHjAcBgNVBAMMFUJhY2tkb29yVGVzdExv
Y2FsU3ViNTEmMCQGCSqGSIb3DQEJARYXcm91dGVydGVzdEBlcHJvc2ltYS5jb20w
WTATBgcqhkjOPQIBBggqhkjOPQMBBwNCAARDfWXNmTQct6uLM3CeXVkxtoAeYg4X
JW+DStGGL3BBdZGij/FftxaJANx+zUSXMNttTz0T+devYTlfIaH9EyA8MAoGCCqG
SM49BAMCA0cAMEQCIBfCFxl/VsIu+H0J+tSw5p8XE5aM7I+Lsp50bmRJKzxVAiBu
bc6YPnzZG2n2b4lJqshS4KJ53ZPM+czuLzptl6CGpA==
-----END CERTIFICATE-----
