Certificate:
    Data:
        Version: 1 (0x0)
        Serial Number:
            2e:4b:e1:b5:46:49:66:aa:c5:ca:a3:ac:fb:62:73:6e:55:63:13:ac
        Signature Algorithm: ecdsa-with-SHA256
        Issuer: C=ES, ST=MA, L=Tres Cantos, O=eProsima, CN=eProsima Main Test CA/emailAddress=routertest@eprosima.com
        Validity
            Not Before: Mar 24 10:33:13 2025 GMT
            Not After : Mar 22 10:33:13 2035 GMT
        Subject: C=ES, ST=MA, O=eProsima, CN=BackdoorTestLocalSub5/emailAddress=routertest@eprosima.com
        Subject Public Key Info:
            Public Key Algorithm: id-ecPublicKey
                Public-Key: (256 bit)
                pub:
                    04:0e:e2:3a:2a:14:41:42:43:60:ff:ab:3b:e9:24:
                    d7:0a:00:bb:94:4e:b1:7e:5c:15:50:d0:4f:8c:3e:
                    40:ed:55:d6:e7:f8:67:08:cf:ef:42:de:33:d6:52:
                    0e:fd:95:ff:6e:bf:42:09:f9:d1:7c:2a:f2:2d:35:
                    90:db:e4:4f:66
                ASN1 OID: prime256v1
                NIST CURVE: P-256
    Signature Algorithm: ecdsa-with-SHA256
    Signature Value:
        30:46:02:21:00:fb:91:a5:e2:b3:85:65:35:08:7e:e9:0e:41:
        24:66:18:e9:39:d6:f0:62:f8:16:34:1c:5e:59:de:2d:ef:8d:
        82:02:21:00:f9:49:cc:ca:22:d3:f0:03:9c:6f:e5:cc:55:ad:
        28:8a:4f:65:20:95:46:4f:38:5d:3a:05:de:ea:03:16:da:69
-----BEGIN CERTIFICATE-----
MIIB/TCCAaICFC5L4bVGSWaqxcqjrPtic25VYxOsMAoGCCqGSM49BAMCMIGLMQsw
CQYDVQQGEwJFUzELMAkGA1UECAwCTUExFDASBgNVBAcMC1RyZXMgQ2FudG9zMREw
DwYDVQQKDAhlUHJvc2ltYTEeMBwGA1UEAwwVZVByb3NpbWEgTWFpbiBUZXN0IENB
MSYwJAYJKoZIhvcNAQkBFhdyb3V0ZXJ0ZXN0QGVwcm9zaW1hLmNvbTAeFw0yNTAz
MjQxMDMzMTNaFw0zNTAzMjIxMDMzMTNaMHUxCzAJBgNVBAYTAkVTMQswCQYDVQQI
DAJNQTERMA8GA1UECgwIZVByb3NpbWExHjAcBgNVBAMMFUJhY2tkb29yVGVzdExv
Y2FsU3ViNTEmMCQGCSqGSIb3DQEJARYXcm91dGVydGVzdEBlcHJvc2ltYS5jb20w
WTATBgcqhkjOPQIBBggqhkjOPQMBBwNCAAQO4joqFEFCQ2D/qzvpJNcKALuUTrF+
XBVQ0E+MPkDtVdbn+GcIz+9C3jPWUg79lf9uv0IJ+dF8KvItNZDb5E9mMAoGCCqG
SM49BAMCA0kAMEYCIQD7kaXis4VlNQh+6Q5BJGYY6TnW8GL4FjQcXlneLe+NggIh
APlJzMoi0/ADnG/lzFWtKIpPZSCVRk84XToF3uoDFtpp
-----END CERTIFICATE-----
