Certificate:
    Data:
        Version: 1 (0x0)
        Serial Number:
            18:f4:54:6c:ac:98:22:c5:d8:cb:08:e7:5e:d7:79:94:52:be:39:a0
        Signature Algorithm: ecdsa-with-SHA256
        Issuer: C=ES, ST=MA, L=Tres Cantos, O=eProsima, CN=eProsima Main Test CA/emailAddress=routertest@eprosima.com
        Validity
            Not Before: Apr 14 13:48:21 2026 GMT
            Not After : Apr 11 13:48:21 2036 GMT
        Subject: C=ES, ST=MA, O=eProsima, CN=BackdoorTestLocalPub1/emailAddress=routertest@eprosima.com
        Subject Public Key Info:
            Public Key Algorithm: id-ecPublicKey
                Public-Key: (256 bit)
                pub:
                    04:43:53:88:ea:ab:2d:6e:78:81:89:68:95:42:b7:
                    4b:33:10:de:39:36:8a:24:91:c8:4c:ef:2e:2d:bb:
                    dd:0f:7d:e2:59:4f:2f:2f:7c:ef:50:7a:28:f4:ab:
                    78:c3:5d:f2:03:44:18:de:84:f2:d6:67:47:f1:da:
                    c8:c8:e7:42:3e
                ASN1 OID: prime256v1
                NIST CURVE: P-256
    Signature Algorithm: ecdsa-with-SHA256
    Signature Value:
        30:45:02:21:00:9e:95:c3:46:4e:3d:7b:53:40:83:e7:09:72:
        1c:5e:05:89:ac:0e:d7:21:f9:62:a7:f4:13:a5:b4:e9:6d:84:
        55:02:20:7b:66:41:02:e5:0b:c8:c7:00:71:34:f9:8a:23:01:
        dd:25:4b:19:47:9a:b2:16:7b:67:7c:56:5f:b5:21:55:18
-----BEGIN CERTIFICATE-----
MIIB/DCCAaICFBj0VGysmCLF2MsI517XeZRSvjmgMAoGCCqGSM49BAMCMIGLMQsw
CQYDVQQGEwJFUzELMAkGA1UECAwCTUExFDASBgNVBAcMC1RyZXMgQ2FudG9zMREw
DwYDVQQKDAhlUHJvc2ltYTEeMBwGA1UEAwwVZVByb3NpbWEgTWFpbiBUZXN0IENB
MSYwJAYJKoZIhvcNAQkBFhdyb3V0ZXJ0ZXN0QGVwcm9zaW1hLmNvbTAeFw0yNjA0
MTQxMzQ4MjFaFw0zNjA0MTExMzQ4MjFaMHUxCzAJBgNVBAYTAkVTMQswCQYDVQQI
DAJNQTERMA8GA1UECgwIZVByb3NpbWExHjAcBgNVBAMMFUJhY2tkb29yVGVzdExv
Y2FsUHViMTEmMCQGCSqGSIb3DQEJARYXcm91dGVydGVzdEBlcHJvc2ltYS5jb20w
WTATBgcqhkjOPQIBBggqhkjOPQMBBwNCAARDU4jqqy1ueIGJaJVCt0szEN45Nook
kchM7y4tu90PfeJZTy8vfO9Qeij0q3jDXfIDRBjehPLWZ0fx2sjI50I+MAoGCCqG
SM49BAMCA0gAMEUCIQCelcNGTj17U0CD5wlyHF4FiawO1yH5Yqf0E6W06W2EVQIg
e2ZBAuULyMcAcTT5iiMB3SVLGUeashZ7Z3xWX7UhVRg=
-----END CERTIFICATE-----
