Certificate:
    Data:
        Version: 1 (0x0)
        Serial Number:
            18:f4:54:6c:ac:98:22:c5:d8:cb:08:e7:5e:d7:79:94:52:be:39:a5
        Signature Algorithm: ecdsa-with-SHA256
        Issuer: C=ES, ST=MA, L=Tres Cantos, O=eProsima, CN=eProsima Main Test CA/emailAddress=routertest@eprosima.com
        Validity
            Not Before: Apr 14 13:48:21 2026 GMT
            Not After : Apr 11 13:48:21 2036 GMT
        Subject: C=ES, ST=MA, O=eProsima, CN=BackdoorTestLocalSub2/emailAddress=routertest@eprosima.com
        Subject Public Key Info:
            Public Key Algorithm: id-ecPublicKey
                Public-Key: (256 bit)
                pub:
                    04:1b:77:68:8c:0e:9d:a0:5c:cc:d5:ef:99:0e:f1:
                    a4:a2:d6:1e:1f:45:86:9a:a2:65:3b:5d:8c:1e:6e:
                    1b:1c:92:42:88:8a:e6:1d:54:b3:72:34:04:06:70:
                    87:fa:61:55:60:f9:28:42:dd:e6:a8:cf:d9:67:f2:
                    a1:31:66:2b:d6
                ASN1 OID: prime256v1
                NIST CURVE: P-256
    Signature Algorithm: ecdsa-with-SHA256
    Signature Value:
        30:45:02:20:0c:8f:1f:6c:1e:7d:84:9c:47:7e:07:9b:32:35:
        f9:11:a2:83:b4:c8:05:86:4c:fa:37:64:e2:7f:4a:df:c6:65:
        02:21:00:97:e2:0f:3e:19:2d:7e:cf:12:92:02:ec:60:be:76:
        30:27:44:11:9e:6d:0c:3e:73:6b:8f:5a:9a:cf:df:03:e1
-----BEGIN CERTIFICATE-----
MIIB/DCCAaICFBj0VGysmCLF2MsI517XeZRSvjmlMAoGCCqGSM49BAMCMIGLMQsw
CQYDVQQGEwJFUzELMAkGA1UECAwCTUExFDASBgNVBAcMC1RyZXMgQ2FudG9zMREw
DwYDVQQKDAhlUHJvc2ltYTEeMBwGA1UEAwwVZVByb3NpbWEgTWFpbiBUZXN0IENB
MSYwJAYJKoZIhvcNAQkBFhdyb3V0ZXJ0ZXN0QGVwcm9zaW1hLmNvbTAeFw0yNjA0
MTQxMzQ4MjFaFw0zNjA0MTExMzQ4MjFaMHUxCzAJBgNVBAYTAkVTMQswCQYDVQQI
DAJNQTERMA8GA1UECgwIZVByb3NpbWExHjAcBgNVBAMMFUJhY2tkb29yVGVzdExv
Y2FsU3ViMjEmMCQGCSqGSIb3DQEJARYXcm91dGVydGVzdEBlcHJvc2ltYS5jb20w
WTATBgcqhkjOPQIBBggqhkjOPQMBBwNCAAQbd2iMDp2gXMzV75kO8aSi1h4fRYaa
omU7XYwebhsckkKIiuYdVLNyNAQGcIf6YVVg+ShC3eaoz9ln8qExZivWMAoGCCqG
SM49BAMCA0gAMEUCIAyPH2wefYScR34HmzI1+RGig7TIBYZM+jdk4n9K38ZlAiEA
l+IPPhktfs8SkgLsYL52MCdEEZ5tDD5za49ams/fA+E=
-----END CERTIFICATE-----
