Certificate:
    Data:
        Version: 1 (0x0)
        Serial Number:
            42:91:43:29:c9:86:8d:9b:8a:a6:8c:24:bd:7a:6d:5e:df:ad:90:20
        Signature Algorithm: ecdsa-with-SHA256
        Issuer: C=ES, ST=MA, L=Tres Cantos, O=eProsima, CN=eProsima Main Test CA/emailAddress=routertest@eprosima.com
        Validity
            Not Before: Dec 22 11:50:22 2023 GMT
            Not After : Dec 19 11:50:22 2033 GMT
        Subject: C=ES, ST=MA, O=eProsima, CN=BackdoorTestLocalSub0/emailAddress=routertest@eprosima.com
        Subject Public Key Info:
            Public Key Algorithm: id-ecPublicKey
                Public-Key: (256 bit)
                pub:
                    04:c5:4a:77:df:c2:5e:db:f3:d0:c0:e0:f2:a9:be:
                    f2:0e:ce:d9:75:d9:69:d2:c9:c3:12:0a:cf:82:8c:
                    86:41:ba:ae:24:e2:6b:41:00:e4:c2:cf:24:9a:51:
                    7d:b1:74:ec:dd:be:72:69:a7:a3:5d:76:7e:06:45:
                    0d:87:ac:b4:11
                ASN1 OID: prime256v1
                NIST CURVE: P-256
    Signature Algorithm: ecdsa-with-SHA256
    Signature Value:
        30:45:02:21:00:84:96:4e:79:c4:bd:f3:0a:49:75:51:cb:89:
        83:39:0f:56:ec:a3:7b:93:a8:ff:e2:91:7b:41:9a:5d:30:ae:
        83:02:20:12:a9:a7:4e:34:73:da:ec:9f:6a:97:da:b3:fa:cc:
        e6:70:14:b3:7a:12:6a:5a:48:d3:4a:c2:1e:28:06:29:dd
-----BEGIN CERTIFICATE-----
MIIB/DCCAaICFEKRQynJho2biqaMJL16bV7frZAgMAoGCCqGSM49BAMCMIGLMQsw
CQYDVQQGEwJFUzELMAkGA1UECAwCTUExFDASBgNVBAcMC1RyZXMgQ2FudG9zMREw
DwYDVQQKDAhlUHJvc2ltYTEeMBwGA1UEAwwVZVByb3NpbWEgTWFpbiBUZXN0IENB
MSYwJAYJKoZIhvcNAQkBFhdyb3V0ZXJ0ZXN0QGVwcm9zaW1hLmNvbTAeFw0yMzEy
MjIxMTUwMjJaFw0zMzEyMTkxMTUwMjJaMHUxCzAJBgNVBAYTAkVTMQswCQYDVQQI
DAJNQTERMA8GA1UECgwIZVByb3NpbWExHjAcBgNVBAMMFUJhY2tkb29yVGVzdExv
Y2FsU3ViMDEmMCQGCSqGSIb3DQEJARYXcm91dGVydGVzdEBlcHJvc2ltYS5jb20w
WTATBgcqhkjOPQIBBggqhkjOPQMBBwNCAATFSnffwl7b89DA4PKpvvIOztl12WnS
ycMSCs+CjIZBuq4k4mtBAOTCzySaUX2xdOzdvnJpp6Nddn4GRQ2HrLQRMAoGCCqG
SM49BAMCA0gAMEUCIQCElk55xL3zCkl1UcuJgzkPVuyje5Oo/+KRe0GaXTCugwIg
EqmnTjRz2uyfapfas/rM5nAUs3oSalpI00rCHigGKd0=
-----END CERTIFICATE-----
