Certificate:
    Data:
        Version: 1 (0x0)
        Serial Number:
            18:f4:54:6c:ac:98:22:c5:d8:cb:08:e7:5e:d7:79:94:52:be:39:a7
        Signature Algorithm: ecdsa-with-SHA256
        Issuer: C=ES, ST=MA, L=Tres Cantos, O=eProsima, CN=eProsima Main Test CA/emailAddress=routertest@eprosima.com
        Validity
            Not Before: Apr 14 13:48:21 2026 GMT
            Not After : Apr 11 13:48:21 2036 GMT
        Subject: C=ES, ST=MA, O=eProsima, CN=BackdoorTestLocalSub4/emailAddress=routertest@eprosima.com
        Subject Public Key Info:
            Public Key Algorithm: id-ecPublicKey
                Public-Key: (256 bit)
                pub:
                    04:ce:35:91:61:cb:3b:db:ad:6f:44:0b:fc:9f:cc:
                    03:29:f0:bd:31:83:03:31:f5:52:31:56:32:9f:1a:
                    b8:de:8c:af:31:89:e1:60:90:44:d5:27:52:c6:4b:
                    3d:66:6f:3e:e9:68:c9:3e:25:2f:64:e1:65:c5:31:
                    5f:ea:6a:72:c0
                ASN1 OID: prime256v1
                NIST CURVE: P-256
    Signature Algorithm: ecdsa-with-SHA256
    Signature Value:
        30:44:02:20:29:26:cb:35:cb:be:04:de:72:e0:5d:da:b0:aa:
        c7:a1:b8:55:2b:e6:67:e8:03:5f:02:2c:6b:73:4c:88:6c:1a:
        02:20:0a:94:27:53:99:95:e5:9e:c0:33:f8:9d:5f:2c:97:49:
        70:2d:ba:5e:d1:2d:61:8c:3f:0b:52:14:6c:64:e8:e3
-----BEGIN CERTIFICATE-----
MIIB+zCCAaICFBj0VGysmCLF2MsI517XeZRSvjmnMAoGCCqGSM49BAMCMIGLMQsw
CQYDVQQGEwJFUzELMAkGA1UECAwCTUExFDASBgNVBAcMC1RyZXMgQ2FudG9zMREw
DwYDVQQKDAhlUHJvc2ltYTEeMBwGA1UEAwwVZVByb3NpbWEgTWFpbiBUZXN0IENB
MSYwJAYJKoZIhvcNAQkBFhdyb3V0ZXJ0ZXN0QGVwcm9zaW1hLmNvbTAeFw0yNjA0
MTQxMzQ4MjFaFw0zNjA0MTExMzQ4MjFaMHUxCzAJBgNVBAYTAkVTMQswCQYDVQQI
DAJNQTERMA8GA1UECgwIZVByb3NpbWExHjAcBgNVBAMMFUJhY2tkb29yVGVzdExv
Y2FsU3ViNDEmMCQGCSqGSIb3DQEJARYXcm91dGVydGVzdEBlcHJvc2ltYS5jb20w
WTATBgcqhkjOPQIBBggqhkjOPQMBBwNCAATONZFhyzvbrW9EC/yfzAMp8L0xgwMx
9VIxVjKfGrjejK8xieFgkETVJ1LGSz1mbz7paMk+JS9k4WXFMV/qanLAMAoGCCqG
SM49BAMCA0cAMEQCICkmyzXLvgTecuBd2rCqx6G4VSvmZ+gDXwIsa3NMiGwaAiAK
lCdTmZXlnsAz+J1fLJdJcC26XtEtYYw/C1IUbGTo4w==
-----END CERTIFICATE-----
