Certificate:
    Data:
        Version: 1 (0x0)
        Serial Number:
            42:91:43:29:c9:86:8d:9b:8a:a6:8c:24:bd:7a:6d:5e:df:ad:90:1d
        Signature Algorithm: ecdsa-with-SHA256
        Issuer: C=ES, ST=MA, L=Tres Cantos, O=eProsima, CN=eProsima Main Test CA/emailAddress=routertest@eprosima.com
        Validity
            Not Before: Dec 22 11:50:22 2023 GMT
            Not After : Dec 19 11:50:22 2033 GMT
        Subject: C=ES, ST=MA, O=eProsima, CN=BackdoorTestLocalPub3/emailAddress=routertest@eprosima.com
        Subject Public Key Info:
            Public Key Algorithm: id-ecPublicKey
                Public-Key: (256 bit)
                pub:
                    04:39:78:30:00:c5:1b:e1:76:bd:38:21:0a:03:5f:
                    e1:3f:7b:51:66:6b:8d:17:2d:7b:b8:4a:61:e8:18:
                    a6:ad:2e:c5:6a:52:56:62:f3:cb:f4:57:a2:37:98:
                    fe:a3:0d:55:c4:81:d3:b4:f9:80:67:a3:bb:ca:ab:
                    e1:a9:15:51:70
                ASN1 OID: prime256v1
                NIST CURVE: P-256
    Signature Algorithm: ecdsa-with-SHA256
    Signature Value:
        30:45:02:20:59:7f:38:74:42:b4:84:54:61:38:fb:25:61:ed:
        e8:06:09:43:0f:08:bf:bd:05:0e:56:81:5b:d1:2c:a4:d4:86:
        02:21:00:e1:6c:be:c8:49:66:9d:74:cd:e3:c7:90:d0:87:d4:
        58:8a:c8:94:91:43:3d:d0:31:bb:20:19:81:9e:04:d4:30
-----BEGIN CERTIFICATE-----
MIIB/DCCAaICFEKRQynJho2biqaMJL16bV7frZAdMAoGCCqGSM49BAMCMIGLMQsw
CQYDVQQGEwJFUzELMAkGA1UECAwCTUExFDASBgNVBAcMC1RyZXMgQ2FudG9zMREw
DwYDVQQKDAhlUHJvc2ltYTEeMBwGA1UEAwwVZVByb3NpbWEgTWFpbiBUZXN0IENB
MSYwJAYJKoZIhvcNAQkBFhdyb3V0ZXJ0ZXN0QGVwcm9zaW1hLmNvbTAeFw0yMzEy
MjIxMTUwMjJaFw0zMzEyMTkxMTUwMjJaMHUxCzAJBgNVBAYTAkVTMQswCQYDVQQI
DAJNQTERMA8GA1UECgwIZVByb3NpbWExHjAcBgNVBAMMFUJhY2tkb29yVGVzdExv
Y2FsUHViMzEmMCQGCSqGSIb3DQEJARYXcm91dGVydGVzdEBlcHJvc2ltYS5jb20w
WTATBgcqhkjOPQIBBggqhkjOPQMBBwNCAAQ5eDAAxRvhdr04IQoDX+E/e1Fma40X
LXu4SmHoGKatLsVqUlZi88v0V6I3mP6jDVXEgdO0+YBno7vKq+GpFVFwMAoGCCqG
SM49BAMCA0gAMEUCIFl/OHRCtIRUYTj7JWHt6AYJQw8Iv70FDlaBW9EspNSGAiEA
4Wy+yElmnXTN48eQ0IfUWIrIlJFDPdAxuyAZgZ4E1DA=
-----END CERTIFICATE-----
