Certificate:
    Data:
        Version: 1 (0x0)
        Serial Number:
            1e:0d:65:dd:0f:62:50:6c:ec:7f:03:50:6f:13:c4:d2:cf:45:50:d3
        Signature Algorithm: ecdsa-with-SHA256
        Issuer: C=ES, ST=MA, L=Tres Cantos, O=eProsima, CN=eProsima Main Test CA/emailAddress=routertest@eprosima.com
        Validity
            Not Before: Dec 27 09:05:25 2023 GMT
            Not After : Dec 24 09:05:25 2033 GMT
        Subject: C=ES, ST=MA, O=eProsima, CN=BackdoorTestLocalPub4/emailAddress=routertest@eprosima.com
        Subject Public Key Info:
            Public Key Algorithm: id-ecPublicKey
                Public-Key: (256 bit)
                pub:
                    04:6d:d0:5a:40:6b:1e:e5:94:c6:08:ab:93:ff:e0:
                    dd:2d:0e:c0:1c:22:58:52:c0:c7:4e:ed:39:1c:52:
                    bc:dd:a7:ea:ef:6f:db:89:c3:b5:3d:4c:8a:4d:93:
                    b4:d6:a7:1d:d1:c5:5a:7f:dd:f7:3a:a8:29:fa:fe:
                    f1:37:c8:dc:e2
                ASN1 OID: prime256v1
                NIST CURVE: P-256
    Signature Algorithm: ecdsa-with-SHA256
    Signature Value:
        30:45:02:21:00:a7:ba:04:d6:5b:e5:0e:2d:c8:2f:99:7e:36:
        23:a0:fe:6b:8d:d4:e5:00:7a:8a:8f:7c:0d:44:e6:bd:f9:2e:
        02:02:20:3c:6e:62:2e:63:79:7f:c2:3d:0e:01:22:35:53:74:
        e3:e7:57:77:cb:e8:ba:bc:e3:15:18:6f:d7:fd:6a:49:3a
-----BEGIN CERTIFICATE-----
MIIB/DCCAaICFB4NZd0PYlBs7H8DUG8TxNLPRVDTMAoGCCqGSM49BAMCMIGLMQsw
CQYDVQQGEwJFUzELMAkGA1UECAwCTUExFDASBgNVBAcMC1RyZXMgQ2FudG9zMREw
DwYDVQQKDAhlUHJvc2ltYTEeMBwGA1UEAwwVZVByb3NpbWEgTWFpbiBUZXN0IENB
MSYwJAYJKoZIhvcNAQkBFhdyb3V0ZXJ0ZXN0QGVwcm9zaW1hLmNvbTAeFw0yMzEy
MjcwOTA1MjVaFw0zMzEyMjQwOTA1MjVaMHUxCzAJBgNVBAYTAkVTMQswCQYDVQQI
DAJNQTERMA8GA1UECgwIZVByb3NpbWExHjAcBgNVBAMMFUJhY2tkb29yVGVzdExv
Y2FsUHViNDEmMCQGCSqGSIb3DQEJARYXcm91dGVydGVzdEBlcHJvc2ltYS5jb20w
WTATBgcqhkjOPQIBBggqhkjOPQMBBwNCAARt0FpAax7llMYIq5P/4N0tDsAcIlhS
wMdO7TkcUrzdp+rvb9uJw7U9TIpNk7TWpx3RxVp/3fc6qCn6/vE3yNziMAoGCCqG
SM49BAMCA0gAMEUCIQCnugTWW+UOLcgvmX42I6D+a43U5QB6io98DUTmvfkuAgIg
PG5iLmN5f8I9DgEiNVN04+dXd8vourzjFRhv1/1qSTo=
-----END CERTIFICATE-----
