Certificate:
    Data:
        Version: 1 (0x0)
        Serial Number:
            18:f4:54:6c:ac:98:22:c5:d8:cb:08:e7:5e:d7:79:94:52:be:39:a2
        Signature Algorithm: ecdsa-with-SHA256
        Issuer: C=ES, ST=MA, L=Tres Cantos, O=eProsima, CN=eProsima Main Test CA/emailAddress=routertest@eprosima.com
        Validity
            Not Before: Apr 14 13:48:21 2026 GMT
            Not After : Apr 11 13:48:21 2036 GMT
        Subject: C=ES, ST=MA, O=eProsima, CN=BackdoorTestLocalPub4/emailAddress=routertest@eprosima.com
        Subject Public Key Info:
            Public Key Algorithm: id-ecPublicKey
                Public-Key: (256 bit)
                pub:
                    04:b7:b7:bc:09:56:19:9e:10:36:11:b4:d2:8a:36:
                    86:5c:58:4a:e6:d3:7a:d2:ab:71:45:db:df:d8:e9:
                    eb:2b:d0:92:cd:69:a2:97:1d:c9:70:0f:73:cf:04:
                    d5:cd:ae:1f:1b:03:76:32:22:46:1c:01:74:4a:99:
                    d4:7f:29:46:09
                ASN1 OID: prime256v1
                NIST CURVE: P-256
    Signature Algorithm: ecdsa-with-SHA256
    Signature Value:
        30:45:02:21:00:f8:8c:20:41:fa:54:a6:16:bf:ce:e6:67:34:
        29:22:d0:ce:48:29:f3:e1:f8:89:f7:11:aa:7e:de:17:e2:4f:
        a1:02:20:74:f0:f7:e3:3b:ca:b1:e3:30:e5:1b:e0:4d:db:69:
        91:7b:ba:5f:dc:65:3f:33:4d:a9:76:92:ae:b9:f2:15:b5
-----BEGIN CERTIFICATE-----
MIIB/DCCAaICFBj0VGysmCLF2MsI517XeZRSvjmiMAoGCCqGSM49BAMCMIGLMQsw
CQYDVQQGEwJFUzELMAkGA1UECAwCTUExFDASBgNVBAcMC1RyZXMgQ2FudG9zMREw
DwYDVQQKDAhlUHJvc2ltYTEeMBwGA1UEAwwVZVByb3NpbWEgTWFpbiBUZXN0IENB
MSYwJAYJKoZIhvcNAQkBFhdyb3V0ZXJ0ZXN0QGVwcm9zaW1hLmNvbTAeFw0yNjA0
MTQxMzQ4MjFaFw0zNjA0MTExMzQ4MjFaMHUxCzAJBgNVBAYTAkVTMQswCQYDVQQI
DAJNQTERMA8GA1UECgwIZVByb3NpbWExHjAcBgNVBAMMFUJhY2tkb29yVGVzdExv
Y2FsUHViNDEmMCQGCSqGSIb3DQEJARYXcm91dGVydGVzdEBlcHJvc2ltYS5jb20w
WTATBgcqhkjOPQIBBggqhkjOPQMBBwNCAAS3t7wJVhmeEDYRtNKKNoZcWErm03rS
q3FF29/Y6esr0JLNaaKXHclwD3PPBNXNrh8bA3YyIkYcAXRKmdR/KUYJMAoGCCqG
SM49BAMCA0gAMEUCIQD4jCBB+lSmFr/O5mc0KSLQzkgp8+H4ifcRqn7eF+JPoQIg
dPD34zvKseMw5RvgTdtpkXu6X9xlPzNNqXaSrrnyFbU=
-----END CERTIFICATE-----
