Certificate:
    Data:
        Version: 1 (0x0)
        Serial Number:
            1e:0d:65:dd:0f:62:50:6c:ec:7f:03:50:6f:13:c4:d2:cf:45:50:d2
        Signature Algorithm: ecdsa-with-SHA256
        Issuer: C=ES, ST=MA, L=Tres Cantos, O=eProsima, CN=eProsima Main Test CA/emailAddress=routertest@eprosima.com
        Validity
            Not Before: Dec 27 09:05:25 2023 GMT
            Not After : Dec 24 09:05:25 2033 GMT
        Subject: C=ES, ST=MA, O=eProsima, CN=BackdoorTestLocalPub3/emailAddress=routertest@eprosima.com
        Subject Public Key Info:
            Public Key Algorithm: id-ecPublicKey
                Public-Key: (256 bit)
                pub:
                    04:ae:76:00:e4:13:16:a8:00:53:0f:cf:ae:de:1e:
                    da:7e:c4:90:6b:ff:20:8b:96:75:46:e7:a2:e1:aa:
                    a4:d3:2b:de:29:f8:45:7e:b8:8e:8a:8f:8d:4a:09:
                    0d:df:43:d3:27:8a:11:c5:bc:69:15:d8:17:a3:ae:
                    a2:56:c3:d9:6f
                ASN1 OID: prime256v1
                NIST CURVE: P-256
    Signature Algorithm: ecdsa-with-SHA256
    Signature Value:
        30:46:02:21:00:84:34:d4:31:56:52:24:c7:a3:9e:f9:7d:a8:
        63:95:cf:72:0e:58:71:3a:78:66:c8:a2:9b:37:0d:a7:b8:2c:
        46:02:21:00:9a:0b:db:ca:3e:f3:88:7a:4d:38:f7:1a:9b:90:
        40:18:f6:7f:db:9e:99:1c:09:26:f8:9b:27:04:af:1e:01:c8
-----BEGIN CERTIFICATE-----
MIIB/TCCAaICFB4NZd0PYlBs7H8DUG8TxNLPRVDSMAoGCCqGSM49BAMCMIGLMQsw
CQYDVQQGEwJFUzELMAkGA1UECAwCTUExFDASBgNVBAcMC1RyZXMgQ2FudG9zMREw
DwYDVQQKDAhlUHJvc2ltYTEeMBwGA1UEAwwVZVByb3NpbWEgTWFpbiBUZXN0IENB
MSYwJAYJKoZIhvcNAQkBFhdyb3V0ZXJ0ZXN0QGVwcm9zaW1hLmNvbTAeFw0yMzEy
MjcwOTA1MjVaFw0zMzEyMjQwOTA1MjVaMHUxCzAJBgNVBAYTAkVTMQswCQYDVQQI
DAJNQTERMA8GA1UECgwIZVByb3NpbWExHjAcBgNVBAMMFUJhY2tkb29yVGVzdExv
Y2FsUHViMzEmMCQGCSqGSIb3DQEJARYXcm91dGVydGVzdEBlcHJvc2ltYS5jb20w
WTATBgcqhkjOPQIBBggqhkjOPQMBBwNCAASudgDkExaoAFMPz67eHtp+xJBr/yCL
lnVG56LhqqTTK94p+EV+uI6Kj41KCQ3fQ9MnihHFvGkV2BejrqJWw9lvMAoGCCqG
SM49BAMCA0kAMEYCIQCENNQxVlIkx6Oe+X2oY5XPcg5YcTp4ZsiimzcNp7gsRgIh
AJoL28o+84h6TTj3GpuQQBj2f9uemRwJJvibJwSvHgHI
-----END CERTIFICATE-----
