Certificate:
    Data:
        Version: 1 (0x0)
        Serial Number:
            18:f4:54:6c:ac:98:22:c5:d8:cb:08:e7:5e:d7:79:94:52:be:39:a4
        Signature Algorithm: ecdsa-with-SHA256
        Issuer: C=ES, ST=MA, L=Tres Cantos, O=eProsima, CN=eProsima Main Test CA/emailAddress=routertest@eprosima.com
        Validity
            Not Before: Apr 14 13:48:21 2026 GMT
            Not After : Apr 11 13:48:21 2036 GMT
        Subject: C=ES, ST=MA, O=eProsima, CN=BackdoorTestLocalSub0/emailAddress=routertest@eprosima.com
        Subject Public Key Info:
            Public Key Algorithm: id-ecPublicKey
                Public-Key: (256 bit)
                pub:
                    04:8c:3d:aa:d2:14:36:bd:82:4f:12:16:84:1b:a4:
                    52:22:2a:3e:37:ed:23:89:4b:37:4e:93:d0:8f:da:
                    65:0b:91:84:96:f6:e8:54:a7:e1:47:2e:77:79:74:
                    04:b5:3c:51:fc:72:0a:6e:8a:6d:9a:0d:e2:f9:fc:
                    a5:40:c4:48:46
                ASN1 OID: prime256v1
                NIST CURVE: P-256
    Signature Algorithm: ecdsa-with-SHA256
    Signature Value:
        30:45:02:21:00:a2:62:f6:ea:0e:47:c6:07:2b:cc:0b:eb:3b:
        7d:45:64:f4:fd:e6:3e:81:d4:70:1b:2a:e5:73:eb:e2:54:91:
        7a:02:20:37:99:62:b8:21:c9:9a:d2:57:43:df:a9:99:43:b4:
        23:75:a8:72:a8:39:d7:fc:8b:92:1d:b8:14:02:55:68:36
-----BEGIN CERTIFICATE-----
MIIB/DCCAaICFBj0VGysmCLF2MsI517XeZRSvjmkMAoGCCqGSM49BAMCMIGLMQsw
CQYDVQQGEwJFUzELMAkGA1UECAwCTUExFDASBgNVBAcMC1RyZXMgQ2FudG9zMREw
DwYDVQQKDAhlUHJvc2ltYTEeMBwGA1UEAwwVZVByb3NpbWEgTWFpbiBUZXN0IENB
MSYwJAYJKoZIhvcNAQkBFhdyb3V0ZXJ0ZXN0QGVwcm9zaW1hLmNvbTAeFw0yNjA0
MTQxMzQ4MjFaFw0zNjA0MTExMzQ4MjFaMHUxCzAJBgNVBAYTAkVTMQswCQYDVQQI
DAJNQTERMA8GA1UECgwIZVByb3NpbWExHjAcBgNVBAMMFUJhY2tkb29yVGVzdExv
Y2FsU3ViMDEmMCQGCSqGSIb3DQEJARYXcm91dGVydGVzdEBlcHJvc2ltYS5jb20w
WTATBgcqhkjOPQIBBggqhkjOPQMBBwNCAASMParSFDa9gk8SFoQbpFIiKj437SOJ
SzdOk9CP2mULkYSW9uhUp+FHLnd5dAS1PFH8cgpuim2aDeL5/KVAxEhGMAoGCCqG
SM49BAMCA0gAMEUCIQCiYvbqDkfGByvMC+s7fUVk9P3mPoHUcBsq5XPr4lSRegIg
N5liuCHJmtJXQ9+pmUO0I3Wocqg51/yLkh24FAJVaDY=
-----END CERTIFICATE-----
