Certificate:
    Data:
        Version: 1 (0x0)
        Serial Number:
            18:f4:54:6c:ac:98:22:c5:d8:cb:08:e7:5e:d7:79:94:52:be:39:a9
        Signature Algorithm: ecdsa-with-SHA256
        Issuer: C=ES, ST=MA, L=Tres Cantos, O=eProsima, CN=eProsima Main Test CA/emailAddress=routertest@eprosima.com
        Validity
            Not Before: Apr 14 13:48:21 2026 GMT
            Not After : Apr 11 13:48:21 2036 GMT
        Subject: C=ES, ST=MA, O=eProsima, CN=BackdoorTestRouter/emailAddress=routertest@eprosima.com
        Subject Public Key Info:
            Public Key Algorithm: id-ecPublicKey
                Public-Key: (256 bit)
                pub:
                    04:d1:c8:70:d0:fa:5b:a6:c9:93:00:4f:e3:b2:a7:
                    c2:11:c7:67:a9:75:7f:81:08:c4:5f:d2:3a:3a:08:
                    35:6e:c2:5e:83:fd:f4:81:ee:78:f5:74:81:9e:2e:
                    80:dd:bf:79:a7:da:cf:a4:43:3d:ee:76:d7:65:43:
                    19:d9:7b:48:c9
                ASN1 OID: prime256v1
                NIST CURVE: P-256
    Signature Algorithm: ecdsa-with-SHA256
    Signature Value:
        30:46:02:21:00:9e:b0:18:bb:f3:57:61:77:cb:15:c8:a8:37:
        9c:cd:b2:74:58:7e:ae:63:ca:85:a8:06:f7:ac:e5:fd:46:5b:
        d0:02:21:00:f7:ff:d8:68:63:f5:24:a3:03:77:b1:d6:37:7b:
        a2:88:f3:09:8f:cd:fd:f5:f1:d2:7d:7d:70:83:c8:08:48:d7
-----BEGIN CERTIFICATE-----
MIIB+jCCAZ8CFBj0VGysmCLF2MsI517XeZRSvjmpMAoGCCqGSM49BAMCMIGLMQsw
CQYDVQQGEwJFUzELMAkGA1UECAwCTUExFDASBgNVBAcMC1RyZXMgQ2FudG9zMREw
DwYDVQQKDAhlUHJvc2ltYTEeMBwGA1UEAwwVZVByb3NpbWEgTWFpbiBUZXN0IENB
MSYwJAYJKoZIhvcNAQkBFhdyb3V0ZXJ0ZXN0QGVwcm9zaW1hLmNvbTAeFw0yNjA0
MTQxMzQ4MjFaFw0zNjA0MTExMzQ4MjFaMHIxCzAJBgNVBAYTAkVTMQswCQYDVQQI
DAJNQTERMA8GA1UECgwIZVByb3NpbWExGzAZBgNVBAMMEkJhY2tkb29yVGVzdFJv
dXRlcjEmMCQGCSqGSIb3DQEJARYXcm91dGVydGVzdEBlcHJvc2ltYS5jb20wWTAT
BgcqhkjOPQIBBggqhkjOPQMBBwNCAATRyHDQ+lumyZMAT+Oyp8IRx2epdX+BCMRf
0jo6CDVuwl6D/fSB7nj1dIGeLoDdv3mn2s+kQz3udtdlQxnZe0jJMAoGCCqGSM49
BAMCA0kAMEYCIQCesBi781dhd8sVyKg3nM2ydFh+rmPKhagG96zl/UZb0AIhAPf/
2Ghj9SSjA3ex1jd7oojzCY/N/fXx0n19cIPICEjX
-----END CERTIFICATE-----
