Certificate:
    Data:
        Version: 1 (0x0)
        Serial Number:
            42:91:43:29:c9:86:8d:9b:8a:a6:8c:24:bd:7a:6d:5e:df:ad:90:25
        Signature Algorithm: ecdsa-with-SHA256
        Issuer: C=ES, ST=MA, L=Tres Cantos, O=eProsima, CN=eProsima Main Test CA/emailAddress=routertest@eprosima.com
        Validity
            Not Before: Dec 22 11:50:22 2023 GMT
            Not After : Dec 19 11:50:22 2033 GMT
        Subject: C=ES, ST=MA, O=eProsima, CN=BackdoorTestRouter/emailAddress=routertest@eprosima.com
        Subject Public Key Info:
            Public Key Algorithm: id-ecPublicKey
                Public-Key: (256 bit)
                pub:
                    04:c8:28:23:6c:b7:c8:98:84:49:2a:e0:eb:0b:06:
                    8c:fc:e7:f6:21:fe:e0:98:f8:89:fd:a6:ec:7f:62:
                    86:cf:b3:86:d4:39:18:63:fb:c4:93:57:8b:09:3a:
                    27:07:fb:68:c8:f5:46:0d:d2:4a:e4:21:25:01:ff:
                    ed:39:33:87:29
                ASN1 OID: prime256v1
                NIST CURVE: P-256
    Signature Algorithm: ecdsa-with-SHA256
    Signature Value:
        30:45:02:21:00:b8:4e:48:08:f0:05:a8:1b:6e:96:e9:c9:06:
        71:19:68:72:8d:1c:c6:eb:64:e8:fb:d0:fd:a7:b0:47:71:40:
        be:02:20:20:99:11:e7:ee:08:5a:05:c7:6f:85:88:ff:8b:d6:
        bd:f0:3d:d8:4b:46:09:c3:c5:69:f3:3f:67:4f:c9:53:51
-----BEGIN CERTIFICATE-----
MIIB+TCCAZ8CFEKRQynJho2biqaMJL16bV7frZAlMAoGCCqGSM49BAMCMIGLMQsw
CQYDVQQGEwJFUzELMAkGA1UECAwCTUExFDASBgNVBAcMC1RyZXMgQ2FudG9zMREw
DwYDVQQKDAhlUHJvc2ltYTEeMBwGA1UEAwwVZVByb3NpbWEgTWFpbiBUZXN0IENB
MSYwJAYJKoZIhvcNAQkBFhdyb3V0ZXJ0ZXN0QGVwcm9zaW1hLmNvbTAeFw0yMzEy
MjIxMTUwMjJaFw0zMzEyMTkxMTUwMjJaMHIxCzAJBgNVBAYTAkVTMQswCQYDVQQI
DAJNQTERMA8GA1UECgwIZVByb3NpbWExGzAZBgNVBAMMEkJhY2tkb29yVGVzdFJv
dXRlcjEmMCQGCSqGSIb3DQEJARYXcm91dGVydGVzdEBlcHJvc2ltYS5jb20wWTAT
BgcqhkjOPQIBBggqhkjOPQMBBwNCAATIKCNst8iYhEkq4OsLBoz85/Yh/uCY+In9
pux/YobPs4bUORhj+8STV4sJOicH+2jI9UYN0krkISUB/+05M4cpMAoGCCqGSM49
BAMCA0gAMEUCIQC4TkgI8AWoG26W6ckGcRloco0cxutk6PvQ/aewR3FAvgIgIJkR
5+4IWgXHb4WI/4vWvfA92EtGCcPFafM/Z0/JU1E=
-----END CERTIFICATE-----
