Certificate:
    Data:
        Version: 1 (0x0)
        Serial Number:
            1e:0d:65:dd:0f:62:50:6c:ec:7f:03:50:6f:13:c4:d2:cf:45:50:da
        Signature Algorithm: ecdsa-with-SHA256
        Issuer: C=ES, ST=MA, L=Tres Cantos, O=eProsima, CN=eProsima Main Test CA/emailAddress=routertest@eprosima.com
        Validity
            Not Before: Dec 27 09:05:25 2023 GMT
            Not After : Dec 24 09:05:25 2033 GMT
        Subject: C=ES, ST=MA, O=eProsima, CN=BackdoorTestRouter/emailAddress=routertest@eprosima.com
        Subject Public Key Info:
            Public Key Algorithm: id-ecPublicKey
                Public-Key: (256 bit)
                pub:
                    04:db:20:fa:2e:8f:f2:09:fb:6f:fe:7a:76:64:e0:
                    34:1f:24:21:ce:50:71:d5:d4:1b:a2:d0:34:ed:84:
                    ca:ab:57:1b:2f:91:f7:60:80:36:80:b9:85:2c:93:
                    7d:dc:f3:dc:9a:7e:35:a9:53:63:78:66:30:36:49:
                    6a:e9:64:03:88
                ASN1 OID: prime256v1
                NIST CURVE: P-256
    Signature Algorithm: ecdsa-with-SHA256
    Signature Value:
        30:44:02:20:37:60:64:ca:b0:e3:d9:15:a3:6b:35:f3:cc:76:
        f8:d7:65:50:0a:97:e3:d9:3b:ee:55:06:8b:00:57:be:6f:6e:
        02:20:17:10:01:ba:09:bc:c7:28:ea:b5:8e:96:fe:43:18:4c:
        1b:ef:d9:65:52:09:f2:c0:a7:db:19:9a:a2:71:a4:a2
-----BEGIN CERTIFICATE-----
MIIB+DCCAZ8CFB4NZd0PYlBs7H8DUG8TxNLPRVDaMAoGCCqGSM49BAMCMIGLMQsw
CQYDVQQGEwJFUzELMAkGA1UECAwCTUExFDASBgNVBAcMC1RyZXMgQ2FudG9zMREw
DwYDVQQKDAhlUHJvc2ltYTEeMBwGA1UEAwwVZVByb3NpbWEgTWFpbiBUZXN0IENB
MSYwJAYJKoZIhvcNAQkBFhdyb3V0ZXJ0ZXN0QGVwcm9zaW1hLmNvbTAeFw0yMzEy
MjcwOTA1MjVaFw0zMzEyMjQwOTA1MjVaMHIxCzAJBgNVBAYTAkVTMQswCQYDVQQI
DAJNQTERMA8GA1UECgwIZVByb3NpbWExGzAZBgNVBAMMEkJhY2tkb29yVGVzdFJv
dXRlcjEmMCQGCSqGSIb3DQEJARYXcm91dGVydGVzdEBlcHJvc2ltYS5jb20wWTAT
BgcqhkjOPQIBBggqhkjOPQMBBwNCAATbIPouj/IJ+2/+enZk4DQfJCHOUHHV1Bui
0DTthMqrVxsvkfdggDaAuYUsk33c89yafjWpU2N4ZjA2SWrpZAOIMAoGCCqGSM49
BAMCA0cAMEQCIDdgZMqw49kVo2s188x2+NdlUAqX49k77lUGiwBXvm9uAiAXEAG6
CbzHKOq1jpb+QxhMG+/ZZVIJ8sCn2xmaonGkog==
-----END CERTIFICATE-----
