Certificate:
    Data:
        Version: 1 (0x0)
        Serial Number:
            0f:d5:85:f4:94:95:46:90:51:c5:d7:28:dd:62:06:38:aa:01:e8:da
        Signature Algorithm: ecdsa-with-SHA256
        Issuer: C=ES, ST=MA, L=Tres Cantos, O=eProsima, CN=eProsima Main Test CA/emailAddress=routertest@eprosima.com
        Validity
            Not Before: Jun  1 14:01:08 2023 GMT
            Not After : May 29 14:01:08 2033 GMT
        Subject: C=ES, ST=MA, O=eProsima, CN=BackdoorTestRouter/emailAddress=routertest@eprosima.com
        Subject Public Key Info:
            Public Key Algorithm: id-ecPublicKey
                Public-Key: (256 bit)
                pub:
                    04:57:0d:1d:31:70:82:70:23:3d:f9:cc:c4:13:a1:
                    a5:88:6b:9b:17:e0:83:e0:55:2a:cb:53:e4:e7:63:
                    fc:18:c2:2f:f5:7c:12:c4:a5:ac:9a:0f:ee:7f:d7:
                    38:d5:b0:bf:dd:51:ff:ae:ff:34:1d:7a:43:9b:15:
                    a2:77:77:a6:3e
                ASN1 OID: prime256v1
                NIST CURVE: P-256
    Signature Algorithm: ecdsa-with-SHA256
    Signature Value:
        30:44:02:20:60:3a:62:35:a0:51:c1:5b:2d:54:ad:a2:5e:ba:
        0e:23:40:50:70:89:9f:ca:41:ff:a4:1b:d3:61:3d:fe:46:01:
        02:20:52:59:93:af:ed:e4:8d:34:71:43:73:33:e6:34:42:1e:
        46:71:52:0c:69:e9:60:2e:38:05:2e:75:92:cd:2a:4a
-----BEGIN CERTIFICATE-----
MIIB+DCCAZ8CFA/VhfSUlUaQUcXXKN1iBjiqAejaMAoGCCqGSM49BAMCMIGLMQsw
CQYDVQQGEwJFUzELMAkGA1UECAwCTUExFDASBgNVBAcMC1RyZXMgQ2FudG9zMREw
DwYDVQQKDAhlUHJvc2ltYTEeMBwGA1UEAwwVZVByb3NpbWEgTWFpbiBUZXN0IENB
MSYwJAYJKoZIhvcNAQkBFhdyb3V0ZXJ0ZXN0QGVwcm9zaW1hLmNvbTAeFw0yMzA2
MDExNDAxMDhaFw0zMzA1MjkxNDAxMDhaMHIxCzAJBgNVBAYTAkVTMQswCQYDVQQI
DAJNQTERMA8GA1UECgwIZVByb3NpbWExGzAZBgNVBAMMEkJhY2tkb29yVGVzdFJv
dXRlcjEmMCQGCSqGSIb3DQEJARYXcm91dGVydGVzdEBlcHJvc2ltYS5jb20wWTAT
BgcqhkjOPQIBBggqhkjOPQMBBwNCAARXDR0xcIJwIz35zMQToaWIa5sX4IPgVSrL
U+TnY/wYwi/1fBLEpayaD+5/1zjVsL/dUf+u/zQdekObFaJ3d6Y+MAoGCCqGSM49
BAMCA0cAMEQCIGA6YjWgUcFbLVStol66DiNAUHCJn8pB/6Qb02E9/kYBAiBSWZOv
7eSNNHFDczPmNEIeRnFSDGnpYC44BS51ks0qSg==
-----END CERTIFICATE-----
